
/workspaces/----/build/cc2340r53/----/ti/ble/peripheral/first_stage_bootloader/RelWithDebInfo/ti_ble.first_stage_bootloader_cc23xx.elf:     file format elf32-littlearm


Disassembly of section .text:

0000008c <PowerCC23X0_oscillatorISR>:

/*
 *  ======== PowerCC23X0_oscillatorISR ========
 */
static void PowerCC23X0_oscillatorISR(uintptr_t arg)
{
      8c:	b5f0      	push	{r4, r5, r6, r7, lr}
      8e:	b081      	sub	sp, #4
      90:	4f51      	ldr	r7, [pc, #324]	@ (1d8 <PowerCC23X0_oscillatorISR+0x14c>)
      92:	2001      	movs	r0, #1
    uint32_t maskedStatus = HWREG(CKMD_BASE + CKMD_O_MIS);
      94:	9000      	str	r0, [sp, #0]
      96:	4638      	mov	r0, r7
      98:	3858      	subs	r0, #88	@ 0x58
      9a:	6804      	ldr	r4, [r0, #0]

    /* Manipulating ICLR alone does not actually do anything. The CKM_COMB
     * signals are almost all level values that reset one cycle after writing to
     * ICLR. We need to update the mask instead to avoid looping in the ISR
     */
    HWREG(CKMD_BASE + CKMD_O_ICLR)  = maskedStatus;
      9c:	4638      	mov	r0, r7
      9e:	3850      	subs	r0, #80	@ 0x50
      a0:	6004      	str	r4, [r0, #0]
    HWREG(CKMD_BASE + CKMD_O_IMCLR) = maskedStatus;
      a2:	4639      	mov	r1, r7
      a4:	3948      	subs	r1, #72	@ 0x48
      a6:	600c      	str	r4, [r1, #0]

    if ((maskedStatus & CKMD_MIS_AMPSETTLED_M) != 0U)
      a8:	0421      	lsls	r1, r4, #16
      aa:	d536      	bpl.n	11a <PowerCC23X0_oscillatorISR+0x8e>
      ac:	9900      	ldr	r1, [sp, #0]
      ae:	0449      	lsls	r1, r1, #17
         * for HFXTGOOD and LFTICK to be set before entering standby. This is
         * achieved by clearing LFTICK once AMPSETTLED is set (which occurs
         * after HFXTGOOD is set), and then waiting for LFTICK to be set again
         * before entering standby.
         */
        HWREG(CKMD_BASE + CKMD_O_ICLR) = CKMD_ICLR_LFTICK;
      b0:	6001      	str	r1, [r0, #0]

        /* Stop AMPSETTLED timeout clock and change callback function of clock
         * object (NULL: not used)
         */
        ClockP_stop(&hfxtAmpCompClock);
      b2:	4e4a      	ldr	r6, [pc, #296]	@ (1dc <PowerCC23X0_oscillatorISR+0x150>)
      b4:	4630      	mov	r0, r6
      b6:	f000 fc8b 	bl	9d0 <ClockP_stop>
      ba:	2500      	movs	r5, #0
        ClockP_setFunc(&hfxtAmpCompClock, NULL, 0);
      bc:	4630      	mov	r0, r6
      be:	4629      	mov	r1, r5
      c0:	462a      	mov	r2, r5
      c2:	f000 ffef 	bl	10a4 <ClockP_setFunc>
 * PowerCC23X0_getHfxtAmpMeasurement() when a measurement is needed.
 */
static void PowerCC23X0_startContHfxtAmpMeasurements(void)
{
    /* Force amplitude measurement - Set SRCSEL = PEAK */
    HWREG(CKMD_BASE + CKMD_O_AMPADCCTL) = (CKMD_AMPADCCTL_SWOVR | CKMD_AMPADCCTL_PEAKDETEN_ENABLE |
      c6:	1f38      	subs	r0, r7, #4
      c8:	4945      	ldr	r1, [pc, #276]	@ (1e0 <PowerCC23X0_oscillatorISR+0x154>)
      ca:	6001      	str	r1, [r0, #0]
        if (startInitialHfxtAmpCompFxn != NULL)
      cc:	4e45      	ldr	r6, [pc, #276]	@ (1e4 <PowerCC23X0_oscillatorISR+0x158>)
      ce:	6830      	ldr	r0, [r6, #0]
      d0:	2800      	cmp	r0, #0
      d2:	d002      	beq.n	da <PowerCC23X0_oscillatorISR+0x4e>
            startInitialHfxtAmpCompFxn();
      d4:	4780      	blx	r0
            startInitialHfxtAmpCompFxn = NULL;
      d6:	6035      	str	r5, [r6, #0]
      d8:	e01f      	b.n	11a <PowerCC23X0_oscillatorISR+0x8e>
 *
 *  @return true if empty, false if not empty
 */
static inline bool List_empty(List_List *list)
{
    return (list->head == NULL);
      da:	4843      	ldr	r0, [pc, #268]	@ (1e8 <PowerCC23X0_oscillatorISR+0x15c>)
      dc:	6805      	ldr	r5, [r0, #0]
      de:	e000      	b.n	e2 <PowerCC23X0_oscillatorISR+0x56>
 *
 *  @return Pointer to the next elem in linked list or NULL if at the end
 */
static inline List_Elem *List_next(List_Elem *elem)
{
    return (elem->next);
      e0:	682d      	ldr	r5, [r5, #0]
      e2:	2d00      	cmp	r5, #0
      e4:	d009      	beq.n	fa <PowerCC23X0_oscillatorISR+0x6e>
            if ((((Power_NotifyObj *)elem)->eventTypes & eventType) != 0U)
      e6:	7a28      	ldrb	r0, [r5, #8]
      e8:	0700      	lsls	r0, r0, #28
      ea:	d5f9      	bpl.n	e0 <PowerCC23X0_oscillatorISR+0x54>
                notifyFxn = ((Power_NotifyObj *)elem)->notifyFxn;
      ec:	68eb      	ldr	r3, [r5, #12]
                clientArg = ((Power_NotifyObj *)elem)->clientArg;
      ee:	692a      	ldr	r2, [r5, #16]
      f0:	2008      	movs	r0, #8
      f2:	2100      	movs	r1, #0
                notifyStatus = (int_fast16_t)(*(Power_NotifyFxn)notifyFxn)(eventType, 0, clientArg);
      f4:	4798      	blx	r3
                if (notifyStatus != Power_NOTIFYDONE)
      f6:	2800      	cmp	r0, #0
      f8:	d0f2      	beq.n	e0 <PowerCC23X0_oscillatorISR+0x54>
    key = HwiP_disable();
      fa:	f001 f81b 	bl	1134 <HwiP_disable>
    constraintCounts[constraintId]--;
      fe:	493b      	ldr	r1, [pc, #236]	@ (1ec <PowerCC23X0_oscillatorISR+0x160>)
     100:	784a      	ldrb	r2, [r1, #1]
     102:	1e52      	subs	r2, r2, #1
     104:	704a      	strb	r2, [r1, #1]
    if (constraintCounts[constraintId] == 0U)
     106:	7849      	ldrb	r1, [r1, #1]
     108:	2900      	cmp	r1, #0
     10a:	d104      	bne.n	116 <PowerCC23X0_oscillatorISR+0x8a>
        constraintMask &= ~(1U << constraintId);
     10c:	4938      	ldr	r1, [pc, #224]	@ (1f0 <PowerCC23X0_oscillatorISR+0x164>)
     10e:	680a      	ldr	r2, [r1, #0]
     110:	2302      	movs	r3, #2
     112:	439a      	bics	r2, r3
     114:	600a      	str	r2, [r1, #0]
    HwiP_restore(key);
     116:	f000 ffff 	bl	1118 <HwiP_restore>
     11a:	4d36      	ldr	r5, [pc, #216]	@ (1f4 <PowerCC23X0_oscillatorISR+0x168>)
     11c:	260a      	movs	r6, #10
    if ((maskedStatus & (CKMD_MIS_HFXTFAULT_M | CKMD_MIS_TRACKREFLOSS_M)) != 0U)
     11e:	4026      	ands	r6, r4
     120:	d016      	beq.n	150 <PowerCC23X0_oscillatorISR+0xc4>
     122:	9b00      	ldr	r3, [sp, #0]
     124:	03d8      	lsls	r0, r3, #15
        HWREG(CKMD_BASE + CKMD_O_HFXTCTL) &= ~CKMD_HFXTCTL_EN_M;
     126:	4639      	mov	r1, r7
     128:	3920      	subs	r1, #32
     12a:	680a      	ldr	r2, [r1, #0]
     12c:	439a      	bics	r2, r3
     12e:	600a      	str	r2, [r1, #0]
 * PowerCC23X0_startContHfxtAmpMeasurements().
 */
static void PowerCC23X0_stopContHfxtAmpMeasurements(void)
{
    /* Clear SW override of Amplitude ADC */
    HWREG(CKMD_BASE + CKMD_O_AMPADCCTL) &= ~CKMD_AMPADCCTL_SWOVR;
     130:	1f39      	subs	r1, r7, #4
     132:	680a      	ldr	r2, [r1, #0]
     134:	402a      	ands	r2, r5
     136:	600a      	str	r2, [r1, #0]
     138:	492f      	ldr	r1, [pc, #188]	@ (1f8 <PowerCC23X0_oscillatorISR+0x16c>)
//! \return None
//
//*****************************************************************************
__STATIC_INLINE void CKMDSetTargetIrefTrim(uint32_t iref)
{
    uint32_t tmp = HWREG(CKMD_BASE + CKMD_O_HFXTTARG) & ~CKMD_HFXTTARG_IREF_M;
     13a:	680a      	ldr	r2, [r1, #0]
     13c:	230f      	movs	r3, #15
     13e:	031b      	lsls	r3, r3, #12
     140:	439a      	bics	r2, r3
    tmp |= (iref << CKMD_HFXTTARG_IREF_S) & CKMD_HFXTTARG_IREF_M;
     142:	4302      	orrs	r2, r0
    HWREG(CKMD_BASE + CKMD_O_HFXTTARG) = tmp;
     144:	600a      	str	r2, [r1, #0]
        PowerCC23X0_startHFXT();
     146:	f000 fbed 	bl	924 <PowerCC23X0_startHFXT>
        HWREG(CKMD_BASE + CKMD_O_IMSET) = maskedStatus & (CKMD_MIS_HFXTFAULT_M | CKMD_MIS_TRACKREFLOSS_M);
     14a:	4638      	mov	r0, r7
     14c:	384c      	subs	r0, #76	@ 0x4c
     14e:	6006      	str	r6, [r0, #0]
    if ((maskedStatus & CKMD_MIS_TRACKREFLOSS_M) != 0U)
     150:	0720      	lsls	r0, r4, #28
     152:	d50e      	bpl.n	172 <PowerCC23X0_oscillatorISR+0xe6>
        uintptr_t key = HwiP_disable();
     154:	f000 ffee 	bl	1134 <HwiP_disable>
        HWREG(CKMD_BASE + CKMD_O_HFTRACKCTL) &= ~CKMD_HFTRACKCTL_EN_M;
     158:	6839      	ldr	r1, [r7, #0]
     15a:	4029      	ands	r1, r5
     15c:	6039      	str	r1, [r7, #0]
        HWREG(CKMD_BASE + CKMD_O_HFTRACKCTL) |= CKMD_HFTRACKCTL_EN_M;
     15e:	6839      	ldr	r1, [r7, #0]
     160:	1c6a      	adds	r2, r5, #1
     162:	430a      	orrs	r2, r1
     164:	603a      	str	r2, [r7, #0]
        HwiP_restore(key);
     166:	f000 ffd7 	bl	1118 <HwiP_restore>
        HWREG(CKMD_BASE + CKMD_O_IMSET) = CKMD_IMSET_TRACKREFLOSS_M;
     16a:	4638      	mov	r0, r7
     16c:	384c      	subs	r0, #76	@ 0x4c
     16e:	2108      	movs	r1, #8
     170:	6001      	str	r1, [r0, #0]
    if (PowerLPF3_lfclkQualFxn != NULL)
     172:	4d22      	ldr	r5, [pc, #136]	@ (1fc <PowerCC23X0_oscillatorISR+0x170>)
     174:	6829      	ldr	r1, [r5, #0]
     176:	2900      	cmp	r1, #0
     178:	d02c      	beq.n	1d4 <PowerCC23X0_oscillatorISR+0x148>
        if (PowerLPF3_lfclkQualFxn(maskedStatus))
     17a:	4620      	mov	r0, r4
     17c:	4788      	blx	r1
     17e:	2800      	cmp	r0, #0
     180:	d028      	beq.n	1d4 <PowerCC23X0_oscillatorISR+0x148>
     182:	2000      	movs	r0, #0
            PowerLPF3_lfclkQualFxn = NULL;
     184:	6028      	str	r0, [r5, #0]
            HWREG(CKMD_BASE + CKMD_O_LFMONCTL) = CKMD_LFMONCTL_EN;
     186:	9800      	ldr	r0, [sp, #0]
     188:	60f8      	str	r0, [r7, #12]
     18a:	481d      	ldr	r0, [pc, #116]	@ (200 <PowerCC23X0_oscillatorISR+0x174>)
            HWREG(PMCTL_BASE + PMCTL_O_RSTCTL) |= PMCTL_RSTCTL_LFLOSS_ARMED;
     18c:	6801      	ldr	r1, [r0, #0]
     18e:	2204      	movs	r2, #4
     190:	430a      	orrs	r2, r1
     192:	6002      	str	r2, [r0, #0]
    return (list->head == NULL);
     194:	4814      	ldr	r0, [pc, #80]	@ (1e8 <PowerCC23X0_oscillatorISR+0x15c>)
     196:	6804      	ldr	r4, [r0, #0]
     198:	e000      	b.n	19c <PowerCC23X0_oscillatorISR+0x110>
    return (elem->next);
     19a:	6824      	ldr	r4, [r4, #0]
     19c:	2c00      	cmp	r4, #0
     19e:	d009      	beq.n	1b4 <PowerCC23X0_oscillatorISR+0x128>
            if ((((Power_NotifyObj *)elem)->eventTypes & eventType) != 0U)
     1a0:	7a20      	ldrb	r0, [r4, #8]
     1a2:	06c0      	lsls	r0, r0, #27
     1a4:	d5f9      	bpl.n	19a <PowerCC23X0_oscillatorISR+0x10e>
                notifyFxn = ((Power_NotifyObj *)elem)->notifyFxn;
     1a6:	68e3      	ldr	r3, [r4, #12]
                clientArg = ((Power_NotifyObj *)elem)->clientArg;
     1a8:	6922      	ldr	r2, [r4, #16]
     1aa:	2010      	movs	r0, #16
     1ac:	2100      	movs	r1, #0
                notifyStatus = (int_fast16_t)(*(Power_NotifyFxn)notifyFxn)(eventType, 0, clientArg);
     1ae:	4798      	blx	r3
                if (notifyStatus != Power_NOTIFYDONE)
     1b0:	2800      	cmp	r0, #0
     1b2:	d0f2      	beq.n	19a <PowerCC23X0_oscillatorISR+0x10e>
    key = HwiP_disable();
     1b4:	f000 ffbe 	bl	1134 <HwiP_disable>
    constraintCounts[constraintId]--;
     1b8:	490c      	ldr	r1, [pc, #48]	@ (1ec <PowerCC23X0_oscillatorISR+0x160>)
     1ba:	784a      	ldrb	r2, [r1, #1]
     1bc:	1e52      	subs	r2, r2, #1
     1be:	704a      	strb	r2, [r1, #1]
    if (constraintCounts[constraintId] == 0U)
     1c0:	7849      	ldrb	r1, [r1, #1]
     1c2:	2900      	cmp	r1, #0
     1c4:	d104      	bne.n	1d0 <PowerCC23X0_oscillatorISR+0x144>
        constraintMask &= ~(1U << constraintId);
     1c6:	490a      	ldr	r1, [pc, #40]	@ (1f0 <PowerCC23X0_oscillatorISR+0x164>)
     1c8:	680a      	ldr	r2, [r1, #0]
     1ca:	2302      	movs	r3, #2
     1cc:	439a      	bics	r2, r3
     1ce:	600a      	str	r2, [r1, #0]
    HwiP_restore(key);
     1d0:	f000 ffa2 	bl	1118 <HwiP_restore>
}
     1d4:	b001      	add	sp, #4
     1d6:	bdf0      	pop	{r4, r5, r6, r7, pc}
     1d8:	400010a4 	.word	0x400010a4
     1dc:	200000ac 	.word	0x200000ac
     1e0:	80030011 	.word	0x80030011
     1e4:	200000a0 	.word	0x200000a0
     1e8:	20000130 	.word	0x20000130
     1ec:	20000138 	.word	0x20000138
     1f0:	20000098 	.word	0x20000098
     1f4:	7fffffff 	.word	0x7fffffff
     1f8:	4000111c 	.word	0x4000111c
     1fc:	20000094 	.word	0x20000094
     200:	4000002c 	.word	0x4000002c

00000204 <ClockP_hwiCallback>:

/*
 *  ======== ClockP_hwiCallback ========
 */
void ClockP_hwiCallback(uintptr_t arg)
{
     204:	b5f0      	push	{r4, r5, r6, r7, lr}
     206:	b083      	sub	sp, #12
     208:	2700      	movs	r7, #0
     20a:	43f8      	mvns	r0, r7
     20c:	9001      	str	r0, [sp, #4]
     20e:	4c3b      	ldr	r4, [pc, #236]	@ (2fc <ClockP_hwiCallback+0xf8>)
     210:	483b      	ldr	r0, [pc, #236]	@ (300 <ClockP_hwiCallback+0xfc>)
     212:	2501      	movs	r5, #1
    /* ClockP is using raw SysTimer channel 0 interrupt. Clearing the channel 0
     * flag is strictly not necessary, but doing it here to avoid confusion for
     * anyone using the SysTimer combined event.
     */
    HWREG(SYSTIM_BASE + SYSTIM_O_ICLR) = SYSTIM_ICLR_EV0_CLR;
     214:	6005      	str	r5, [r0, #0]
    hwiKey = HwiP_disable();
     216:	f000 ff8d 	bl	1134 <HwiP_disable>
    nowTick = getClockPTick();
     21a:	6821      	ldr	r1, [r4, #0]
    ClockP_inWorkFunc                = true;
     21c:	4a39      	ldr	r2, [pc, #228]	@ (304 <ClockP_hwiCallback+0x100>)
     21e:	9500      	str	r5, [sp, #0]
     220:	7015      	strb	r5, [r2, #0]
    ClockP_startOrStopDuringWorkFunc = false;
     222:	4a39      	ldr	r2, [pc, #228]	@ (308 <ClockP_hwiCallback+0x104>)
     224:	7017      	strb	r7, [r2, #0]
    timeoutTick       = ClockP_nextScheduledTick;
     226:	4a39      	ldr	r2, [pc, #228]	@ (30c <ClockP_hwiCallback+0x108>)
     228:	6816      	ldr	r6, [r2, #0]
    ticksSinceTimeout = nowTick - timeoutTick;
     22a:	1b8c      	subs	r4, r1, r6
    HwiP_restore(hwiKey);
     22c:	f000 ff74 	bl	1118 <HwiP_restore>
     230:	e004      	b.n	23c <ClockP_hwiCallback+0x38>
     232:	9802      	ldr	r0, [sp, #8]
     234:	1a24      	subs	r4, r4, r0
    while (ticksSinceTimeout >= distance)
     236:	42ac      	cmp	r4, r5
     238:	462f      	mov	r7, r5
     23a:	d328      	bcc.n	28e <ClockP_hwiCallback+0x8a>
     23c:	9702      	str	r7, [sp, #8]
        timeoutTick += distance;
     23e:	19f6      	adds	r6, r6, r7
    for (elem = List_head(list); elem != NULL; elem = List_next(elem))
     240:	4833      	ldr	r0, [pc, #204]	@ (310 <ClockP_hwiCallback+0x10c>)
     242:	6807      	ldr	r7, [r0, #0]
     244:	2f00      	cmp	r7, #0
     246:	9d01      	ldr	r5, [sp, #4]
     248:	d0f3      	beq.n	232 <ClockP_hwiCallback+0x2e>
     24a:	9d01      	ldr	r5, [sp, #4]
     24c:	e003      	b.n	256 <ClockP_hwiCallback+0x52>
     24e:	4605      	mov	r5, r0
     250:	683f      	ldr	r7, [r7, #0]
     252:	2f00      	cmp	r7, #0
     254:	d0ed      	beq.n	232 <ClockP_hwiCallback+0x2e>
        if (obj->active == true)
     256:	7d38      	ldrb	r0, [r7, #20]
     258:	2800      	cmp	r0, #0
     25a:	d0f9      	beq.n	250 <ClockP_hwiCallback+0x4c>
                if (obj->currTimeout == thisTick)
     25c:	68f8      	ldr	r0, [r7, #12]
     25e:	42b0      	cmp	r0, r6
     260:	d10c      	bne.n	27c <ClockP_hwiCallback+0x78>
                    period = obj->period;
     262:	6939      	ldr	r1, [r7, #16]
                    arg    = obj->arg;
     264:	69f8      	ldr	r0, [r7, #28]
                    if (obj->period == 0)
     266:	693a      	ldr	r2, [r7, #16]
     268:	2a00      	cmp	r2, #0
     26a:	d003      	beq.n	274 <ClockP_hwiCallback+0x70>
                        obj->currTimeout += period;
     26c:	68fa      	ldr	r2, [r7, #12]
     26e:	1851      	adds	r1, r2, r1
     270:	60f9      	str	r1, [r7, #12]
     272:	e001      	b.n	278 <ClockP_hwiCallback+0x74>
     274:	2100      	movs	r1, #0
                        obj->active = false;
     276:	7539      	strb	r1, [r7, #20]
                    obj->fxn(arg);
     278:	69b9      	ldr	r1, [r7, #24]
     27a:	4788      	blx	r1
            if (obj->active == true)
     27c:	7d38      	ldrb	r0, [r7, #20]
     27e:	2800      	cmp	r0, #0
     280:	d0e6      	beq.n	250 <ClockP_hwiCallback+0x4c>
                delta = obj->currTimeout - thisTick;
     282:	68f8      	ldr	r0, [r7, #12]
     284:	1b80      	subs	r0, r0, r6
                if (delta < distance)
     286:	42a8      	cmp	r0, r5
     288:	d3e1      	bcc.n	24e <ClockP_hwiCallback+0x4a>
     28a:	4628      	mov	r0, r5
     28c:	e7df      	b.n	24e <ClockP_hwiCallback+0x4a>
    hwiKey = HwiP_disable();
     28e:	f000 ff51 	bl	1134 <HwiP_disable>
     292:	4607      	mov	r7, r0
    if (ClockP_startOrStopDuringWorkFunc == true)
     294:	481c      	ldr	r0, [pc, #112]	@ (308 <ClockP_hwiCallback+0x104>)
     296:	7800      	ldrb	r0, [r0, #0]
     298:	2801      	cmp	r0, #1
     29a:	d116      	bne.n	2ca <ClockP_hwiCallback+0xc6>
    for (elem = List_head(list); elem != NULL; elem = List_next(elem))
     29c:	481c      	ldr	r0, [pc, #112]	@ (310 <ClockP_hwiCallback+0x10c>)
     29e:	6800      	ldr	r0, [r0, #0]
     2a0:	2800      	cmp	r0, #0
     2a2:	d011      	beq.n	2c8 <ClockP_hwiCallback+0xc4>
     2a4:	9d01      	ldr	r5, [sp, #4]
     2a6:	e003      	b.n	2b0 <ClockP_hwiCallback+0xac>
     2a8:	460d      	mov	r5, r1
     2aa:	6800      	ldr	r0, [r0, #0]
     2ac:	2800      	cmp	r0, #0
     2ae:	d00c      	beq.n	2ca <ClockP_hwiCallback+0xc6>
        if (obj->active == true)
     2b0:	7d01      	ldrb	r1, [r0, #20]
     2b2:	2900      	cmp	r1, #0
     2b4:	d0f9      	beq.n	2aa <ClockP_hwiCallback+0xa6>
            if (obj->active == true)
     2b6:	7d01      	ldrb	r1, [r0, #20]
     2b8:	2900      	cmp	r1, #0
     2ba:	d0f6      	beq.n	2aa <ClockP_hwiCallback+0xa6>
                delta = obj->currTimeout - thisTick;
     2bc:	68c1      	ldr	r1, [r0, #12]
     2be:	1b89      	subs	r1, r1, r6
                if (delta < distance)
     2c0:	42a9      	cmp	r1, r5
     2c2:	d3f1      	bcc.n	2a8 <ClockP_hwiCallback+0xa4>
     2c4:	4629      	mov	r1, r5
     2c6:	e7ef      	b.n	2a8 <ClockP_hwiCallback+0xa4>
     2c8:	9d01      	ldr	r5, [sp, #4]
     2ca:	4812      	ldr	r0, [pc, #72]	@ (314 <ClockP_hwiCallback+0x110>)
    if (distance > ClockP_PERIOD_MAX)
     2cc:	4285      	cmp	r5, r0
     2ce:	d300      	bcc.n	2d2 <ClockP_hwiCallback+0xce>
     2d0:	4605      	mov	r5, r0
    nextTick = timeoutTick + distance;
     2d2:	19ac      	adds	r4, r5, r6
     2d4:	4d09      	ldr	r5, [pc, #36]	@ (2fc <ClockP_hwiCallback+0xf8>)
    HWREG(SYSTIM_BASE + SYSTIM_O_ARMCLR) = SYSTIM_ARMCLR_CH0_CLR;
     2d6:	9800      	ldr	r0, [sp, #0]
     2d8:	6468      	str	r0, [r5, #68]	@ 0x44
     2da:	2020      	movs	r0, #32
    HwiP_clearInterrupt(INT_CPUIRQ16);
     2dc:	f000 ff41 	bl	1162 <HwiP_clearInterrupt>
    HWREG(SYSTIM_BASE + SYSTIM_O_CH0CC) = newSystim;
     2e0:	61ec      	str	r4, [r5, #28]
    ClockP_nextScheduledTick = absTick;
     2e2:	480a      	ldr	r0, [pc, #40]	@ (30c <ClockP_hwiCallback+0x108>)
     2e4:	6004      	str	r4, [r0, #0]
     2e6:	2000      	movs	r0, #0
    ClockP_inWorkFunc = false;
     2e8:	4906      	ldr	r1, [pc, #24]	@ (304 <ClockP_hwiCallback+0x100>)
     2ea:	7008      	strb	r0, [r1, #0]
    ClockP_ticks      = timeoutTick;
     2ec:	480a      	ldr	r0, [pc, #40]	@ (318 <ClockP_hwiCallback+0x114>)
     2ee:	6006      	str	r6, [r0, #0]
    HwiP_restore(hwiKey);
     2f0:	4638      	mov	r0, r7
     2f2:	f000 ff11 	bl	1118 <HwiP_restore>

    /* Run worker function */
    ClockP_workFuncDynamic(arg);
}
     2f6:	b003      	add	sp, #12
     2f8:	bdf0      	pop	{r4, r5, r6, r7, pc}
     2fa:	46c0      	nop			@ (mov r8, r8)
     2fc:	40022104 	.word	0x40022104
     300:	40022054 	.word	0x40022054
     304:	2000013d 	.word	0x2000013d
     308:	2000013e 	.word	0x2000013e
     30c:	20000140 	.word	0x20000140
     310:	20000128 	.word	0x20000128
     314:	ffbfffff 	.word	0xffbfffff
     318:	20000144 	.word	0x20000144

0000031c <PowerCC23X0_standbyPolicy>:

/*
 *  ======== PowerCC23X0_standbyPolicy ========
 */
void PowerCC23X0_standbyPolicy(void)
{
     31c:	b5f0      	push	{r4, r5, r6, r7, lr}
     31e:	b081      	sub	sp, #4
    uintptr_t key;
    bool standbyAllowed;
    bool idleAllowed;
    bool sysTickEnabled;

    key = HwiP_disable();
     320:	f000 ff08 	bl	1134 <HwiP_disable>
     324:	4604      	mov	r4, r0

    /* Check state of constraints */
    constraints    = Power_getConstraintMask();
     326:	f000 ff11 	bl	114c <Power_getConstraintMask>
     32a:	2104      	movs	r1, #4
    standbyAllowed = (constraints & (1U << PowerLPF3_DISALLOW_STANDBY)) == 0U;
    idleAllowed    = (constraints & (1U << PowerLPF3_DISALLOW_IDLE)) == 0U;
     32c:	4001      	ands	r1, r0

    if (standbyAllowed && (PowerLPF3_isLfincFilterAllowingStandby() == false))
     32e:	0780      	lsls	r0, r0, #30
     330:	d411      	bmi.n	356 <PowerCC23X0_standbyPolicy+0x3a>
    idleAllowed    = (constraints & (1U << PowerLPF3_DISALLOW_IDLE)) == 0U;
     332:	424d      	negs	r5, r1
     334:	414d      	adcs	r5, r1
    if (standbyAllowed && (PowerLPF3_isLfincFilterAllowingStandby() == false))
     336:	f000 fe31 	bl	f9c <PowerLPF3_isLfincFilterAllowingStandby>
        standbyAllowed = false;
        idleAllowed    = false;
    }

    /* Do quick check to see if only WFI allowed; if yes, do it now. */
    if (standbyAllowed)
     33a:	2800      	cmp	r0, #0
     33c:	d062      	beq.n	404 <PowerCC23X0_standbyPolicy+0xe8>
     33e:	4e34      	ldr	r6, [pc, #208]	@ (410 <PowerCC23X0_standbyPolicy+0xf4>)
     340:	4a34      	ldr	r2, [pc, #208]	@ (414 <PowerCC23X0_standbyPolicy+0xf8>)
     342:	4935      	ldr	r1, [pc, #212]	@ (418 <PowerCC23X0_standbyPolicy+0xfc>)
        /* If we are allowed to enter standby, check whether the next timeout is
         * far enough away for it to make sense.
         */

        /* Get SysTimer IMASK state */
        sysTimerIMASK = HWREG(SYSTIM_BASE + SYSTIM_O_IMASK);
     344:	680f      	ldr	r7, [r1, #0]

        /* Get current time in 1us resolution */
        sysTimerCurrTime = HWREG(SYSTIM_BASE + SYSTIM_O_TIME1U);
     346:	6811      	ldr	r1, [r2, #0]

        /* We only want to check the SysTimer channels if at least one of them
         * is active. It may be that no one is using ClockP or RCL in this
         * application or they have not been initialised yet.
         */
        if (sysTimerIMASK != 0)
     348:	2f00      	cmp	r7, #0
     34a:	d009      	beq.n	360 <PowerCC23X0_standbyPolicy+0x44>
     34c:	2300      	movs	r3, #0
             * If no channel is active, we will use the max timeout value
             * supported by the SysTimer.
             */
            for (sysTimerIndex = 0; sysTimerIndex < SYSTIMER_CHANNEL_COUNT; sysTimerIndex++)
            {
                if (sysTimerIMASK & (1 << sysTimerIndex))
     34e:	07fa      	lsls	r2, r7, #31
     350:	d108      	bne.n	364 <PowerCC23X0_standbyPolicy+0x48>
     352:	43db      	mvns	r3, r3
     354:	e00c      	b.n	370 <PowerCC23X0_standbyPolicy+0x54>
             * idle instead.
             */
            PowerCC23X0_doWFI();
        }
    }
    else if (idleAllowed)
     356:	2900      	cmp	r1, #0
     358:	d154      	bne.n	404 <PowerCC23X0_standbyPolicy+0xe8>
     35a:	f000 fecd 	bl	10f8 <PowerCC23X0_doWFI>
     35e:	e051      	b.n	404 <PowerCC23X0_standbyPolicy+0xe8>
     360:	4633      	mov	r3, r6
     362:	e041      	b.n	3e8 <PowerCC23X0_standbyPolicy+0xcc>
                    sysTimerLoopDelta = HWREG(SYSTIM_BASE + SYSTIM_O_CH0CCSR + (sysTimerIndex * sizeof(uint32_t)));
     364:	4a2b      	ldr	r2, [pc, #172]	@ (414 <PowerCC23X0_standbyPolicy+0xf8>)
     366:	6c92      	ldr	r2, [r2, #72]	@ 0x48
                    sysTimerLoopDelta -= sysTimerCurrTime << sysTimerResolutionShift[sysTimerIndex];
     368:	1a52      	subs	r2, r2, r1
                    if (sysTimerLoopDelta > MAX_SYSTIMER_DELTA)
     36a:	42b2      	cmp	r2, r6
     36c:	d800      	bhi.n	370 <PowerCC23X0_standbyPolicy+0x54>
     36e:	4613      	mov	r3, r2
                if (sysTimerIMASK & (1 << sysTimerIndex))
     370:	07ba      	lsls	r2, r7, #30
     372:	d508      	bpl.n	386 <PowerCC23X0_standbyPolicy+0x6a>
                    sysTimerLoopDelta = HWREG(SYSTIM_BASE + SYSTIM_O_CH0CCSR + (sysTimerIndex * sizeof(uint32_t)));
     374:	4a27      	ldr	r2, [pc, #156]	@ (414 <PowerCC23X0_standbyPolicy+0xf8>)
     376:	6cd2      	ldr	r2, [r2, #76]	@ 0x4c
                    sysTimerLoopDelta -= sysTimerCurrTime << sysTimerResolutionShift[sysTimerIndex];
     378:	1a52      	subs	r2, r2, r1
                    if (sysTimerLoopDelta > MAX_SYSTIMER_DELTA)
     37a:	42b2      	cmp	r2, r6
     37c:	d900      	bls.n	380 <PowerCC23X0_standbyPolicy+0x64>
     37e:	2200      	movs	r2, #0
                    sysTimerDelta = Math_MIN(sysTimerDelta, sysTimerLoopDelta);
     380:	4293      	cmp	r3, r2
     382:	d300      	bcc.n	386 <PowerCC23X0_standbyPolicy+0x6a>
     384:	4613      	mov	r3, r2
                if (sysTimerIMASK & (1 << sysTimerIndex))
     386:	077a      	lsls	r2, r7, #29
     388:	d50c      	bpl.n	3a4 <PowerCC23X0_standbyPolicy+0x88>
                    sysTimerLoopDelta = HWREG(SYSTIM_BASE + SYSTIM_O_CH0CCSR + (sysTimerIndex * sizeof(uint32_t)));
     38a:	4a22      	ldr	r2, [pc, #136]	@ (414 <PowerCC23X0_standbyPolicy+0xf8>)
     38c:	6d12      	ldr	r2, [r2, #80]	@ 0x50
                    sysTimerLoopDelta -= sysTimerCurrTime << sysTimerResolutionShift[sysTimerIndex];
     38e:	008e      	lsls	r6, r1, #2
     390:	1b92      	subs	r2, r2, r6
                    sysTimerLoopDelta = sysTimerLoopDelta >> sysTimerResolutionShift[sysTimerIndex];
     392:	4e1f      	ldr	r6, [pc, #124]	@ (410 <PowerCC23X0_standbyPolicy+0xf4>)
     394:	42b2      	cmp	r2, r6
     396:	d801      	bhi.n	39c <PowerCC23X0_standbyPolicy+0x80>
     398:	0892      	lsrs	r2, r2, #2
     39a:	e000      	b.n	39e <PowerCC23X0_standbyPolicy+0x82>
     39c:	2200      	movs	r2, #0
                    sysTimerDelta = Math_MIN(sysTimerDelta, sysTimerLoopDelta);
     39e:	4293      	cmp	r3, r2
     3a0:	d300      	bcc.n	3a4 <PowerCC23X0_standbyPolicy+0x88>
     3a2:	4613      	mov	r3, r2
                if (sysTimerIMASK & (1 << sysTimerIndex))
     3a4:	073a      	lsls	r2, r7, #28
     3a6:	d50c      	bpl.n	3c2 <PowerCC23X0_standbyPolicy+0xa6>
                    sysTimerLoopDelta = HWREG(SYSTIM_BASE + SYSTIM_O_CH0CCSR + (sysTimerIndex * sizeof(uint32_t)));
     3a8:	4a1a      	ldr	r2, [pc, #104]	@ (414 <PowerCC23X0_standbyPolicy+0xf8>)
     3aa:	6d52      	ldr	r2, [r2, #84]	@ 0x54
                    sysTimerLoopDelta -= sysTimerCurrTime << sysTimerResolutionShift[sysTimerIndex];
     3ac:	008e      	lsls	r6, r1, #2
     3ae:	1b92      	subs	r2, r2, r6
     3b0:	4e17      	ldr	r6, [pc, #92]	@ (410 <PowerCC23X0_standbyPolicy+0xf4>)
                    sysTimerLoopDelta = sysTimerLoopDelta >> sysTimerResolutionShift[sysTimerIndex];
     3b2:	42b2      	cmp	r2, r6
     3b4:	d801      	bhi.n	3ba <PowerCC23X0_standbyPolicy+0x9e>
     3b6:	0892      	lsrs	r2, r2, #2
     3b8:	e000      	b.n	3bc <PowerCC23X0_standbyPolicy+0xa0>
     3ba:	2200      	movs	r2, #0
                    sysTimerDelta = Math_MIN(sysTimerDelta, sysTimerLoopDelta);
     3bc:	4293      	cmp	r3, r2
     3be:	d300      	bcc.n	3c2 <PowerCC23X0_standbyPolicy+0xa6>
     3c0:	4613      	mov	r3, r2
                if (sysTimerIMASK & (1 << sysTimerIndex))
     3c2:	06fa      	lsls	r2, r7, #27
     3c4:	d50c      	bpl.n	3e0 <PowerCC23X0_standbyPolicy+0xc4>
                    sysTimerLoopDelta = HWREG(SYSTIM_BASE + SYSTIM_O_CH0CCSR + (sysTimerIndex * sizeof(uint32_t)));
     3c6:	4a13      	ldr	r2, [pc, #76]	@ (414 <PowerCC23X0_standbyPolicy+0xf8>)
     3c8:	6d92      	ldr	r2, [r2, #88]	@ 0x58
     3ca:	4637      	mov	r7, r6
                    sysTimerLoopDelta -= sysTimerCurrTime << sysTimerResolutionShift[sysTimerIndex];
     3cc:	008e      	lsls	r6, r1, #2
     3ce:	1b92      	subs	r2, r2, r6
                    sysTimerLoopDelta = sysTimerLoopDelta >> sysTimerResolutionShift[sysTimerIndex];
     3d0:	42ba      	cmp	r2, r7
     3d2:	d801      	bhi.n	3d8 <PowerCC23X0_standbyPolicy+0xbc>
     3d4:	0892      	lsrs	r2, r2, #2
     3d6:	e000      	b.n	3da <PowerCC23X0_standbyPolicy+0xbe>
     3d8:	2200      	movs	r2, #0
                    sysTimerDelta = Math_MIN(sysTimerDelta, sysTimerLoopDelta);
     3da:	4293      	cmp	r3, r2
     3dc:	d300      	bcc.n	3e0 <PowerCC23X0_standbyPolicy+0xc4>
     3de:	4613      	mov	r3, r2
     3e0:	22ff      	movs	r2, #255	@ 0xff
     3e2:	32f6      	adds	r2, #246	@ 0xf6
        if (sysTimerDelta > PowerCC23X0_TOTALTIMESTANDBY)
     3e4:	4293      	cmp	r3, r2
     3e6:	d30b      	bcc.n	400 <PowerCC23X0_standbyPolicy+0xe4>
     3e8:	4d0c      	ldr	r5, [pc, #48]	@ (41c <PowerCC23X0_standbyPolicy+0x100>)
            sysTickEnabled = ((SysTick->CTRL & SysTick_CTRL_ENABLE_Msk) != 0);
     3ea:	682e      	ldr	r6, [r5, #0]
            PowerLPF3_sleep(sysTimerDelta + sysTimerCurrTime);
     3ec:	1858      	adds	r0, r3, r1
     3ee:	f000 f913 	bl	618 <PowerLPF3_sleep>
            if (sysTickEnabled)
     3f2:	07f0      	lsls	r0, r6, #31
     3f4:	d006      	beq.n	404 <PowerCC23X0_standbyPolicy+0xe8>
//
//*****************************************************************************
__STATIC_INLINE void SysTickEnable(void)
{
    // Enable SysTick.
    HWREG(SYSTICK_BASE + SYSTICK_O_CSR) |= (SYSTICK_CSR_CLKSOURCE | SYSTICK_CSR_ENABLE);
     3f6:	6828      	ldr	r0, [r5, #0]
     3f8:	2105      	movs	r1, #5
     3fa:	4301      	orrs	r1, r0
     3fc:	6029      	str	r1, [r5, #0]
     3fe:	e001      	b.n	404 <PowerCC23X0_standbyPolicy+0xe8>
     400:	4005      	ands	r5, r0
        else if (idleAllowed)
     402:	d1aa      	bne.n	35a <PowerCC23X0_standbyPolicy+0x3e>
         * Enter idle instead if it is allowed.
         */
        PowerCC23X0_doWFI();
    }

    HwiP_restore(key);
     404:	4620      	mov	r0, r4
     406:	f000 fe87 	bl	1118 <HwiP_restore>
}
     40a:	b001      	add	sp, #4
     40c:	bdf0      	pop	{r4, r5, r6, r7, pc}
     40e:	46c0      	nop			@ (mov r8, r8)
     410:	ffbfffff 	.word	0xffbfffff
     414:	40022104 	.word	0x40022104
     418:	40022044 	.word	0x40022044
     41c:	e000e010 	.word	0xe000e010

00000420 <Power_init>:
{
     420:	b5f0      	push	{r4, r5, r6, r7, lr}
     422:	b081      	sub	sp, #4
    if (isInitialized)
     424:	482d      	ldr	r0, [pc, #180]	@ (4dc <Power_init+0xbc>)
     426:	7801      	ldrb	r1, [r0, #0]
     428:	2900      	cmp	r1, #0
     42a:	d154      	bne.n	4d6 <Power_init+0xb6>
     42c:	2601      	movs	r6, #1
    isInitialized = true;
     42e:	7006      	strb	r6, [r0, #0]
    isPolicyEnabled = PowerCC23X0_config.policyFxn != NULL;
     430:	482b      	ldr	r0, [pc, #172]	@ (4e0 <Power_init+0xc0>)
     432:	6841      	ldr	r1, [r0, #4]
     434:	1e4a      	subs	r2, r1, #1
     436:	460b      	mov	r3, r1
     438:	4193      	sbcs	r3, r2
     43a:	4a2a      	ldr	r2, [pc, #168]	@ (4e4 <Power_init+0xc4>)
     43c:	7013      	strb	r3, [r2, #0]
    policyFxn = PowerCC23X0_config.policyFxn;
     43e:	4a2a      	ldr	r2, [pc, #168]	@ (4e8 <Power_init+0xc8>)
     440:	6011      	str	r1, [r2, #0]
    startInitialHfxtAmpCompFxn = PowerCC23X0_config.startInitialHfxtAmpCompFxn;
     442:	6880      	ldr	r0, [r0, #8]
     444:	4929      	ldr	r1, [pc, #164]	@ (4ec <Power_init+0xcc>)
     446:	6008      	str	r0, [r1, #0]
    HwiP_construct(&ckmHwi, INT_CPUIRQ3, PowerCC23X0_oscillatorISR, NULL);
     448:	4829      	ldr	r0, [pc, #164]	@ (4f0 <Power_init+0xd0>)
     44a:	4a2a      	ldr	r2, [pc, #168]	@ (4f4 <Power_init+0xd4>)
     44c:	2513      	movs	r5, #19
     44e:	2400      	movs	r4, #0
     450:	4629      	mov	r1, r5
     452:	4623      	mov	r3, r4
     454:	f000 fbf4 	bl	c40 <HwiP_construct>
     458:	2041      	movs	r0, #65	@ 0x41
     45a:	0100      	lsls	r0, r0, #4
     45c:	2103      	movs	r1, #3
    EVTSVTConfigureEvent(EVTSVT_SUB_CPUIRQ3, EVTSVT_PUB_AON_CKM_COMB);
     45e:	f000 fe63 	bl	1128 <EVTSVTConfigureEvent>
     462:	03f7      	lsls	r7, r6, #15
    HWREG(CKMD_BASE + CKMD_O_IMSET) = CKMD_IMSET_AMPSETTLED | CKMD_IMSET_HFXTFAULT | CKMD_IMSET_TRACKREFLOSS;
     464:	4638      	mov	r0, r7
     466:	300a      	adds	r0, #10
     468:	4923      	ldr	r1, [pc, #140]	@ (4f8 <Power_init+0xd8>)
     46a:	394c      	subs	r1, #76	@ 0x4c
     46c:	6008      	str	r0, [r1, #0]
    HwiP_enableInterrupt(INT_CPUIRQ3);
     46e:	4628      	mov	r0, r5
     470:	f000 fe7b 	bl	116a <HwiP_enableInterrupt>
    HwiP_construct(&clockHwi, INT_CPUIRQ16, PowerCC23X0_rtcISR, NULL);
     474:	4821      	ldr	r0, [pc, #132]	@ (4fc <Power_init+0xdc>)
     476:	4a22      	ldr	r2, [pc, #136]	@ (500 <Power_init+0xe0>)
     478:	2120      	movs	r1, #32
     47a:	4623      	mov	r3, r4
     47c:	f000 fbe0 	bl	c40 <HwiP_construct>
     480:	4820      	ldr	r0, [pc, #128]	@ (504 <Power_init+0xe4>)
    HWREG(RTC_BASE + RTC_O_IMSET) = RTC_IMSET_EV0_SET;
     482:	6006      	str	r6, [r0, #0]
    HWREG(RTC_BASE + RTC_O_EMU) = RTC_EMU_HALT_STOP;
     484:	6086      	str	r6, [r0, #8]
     486:	4820      	ldr	r0, [pc, #128]	@ (508 <Power_init+0xe8>)
    HWREG(SYSTIM_BASE + SYSTIM_O_EMU) = SYSTIM_EMU_HALT_STOP;
     488:	6006      	str	r6, [r0, #0]
     48a:	4820      	ldr	r0, [pc, #128]	@ (50c <Power_init+0xec>)
    HWREG(CKMD_BASE + CKMD_O_AMPCFG1) &= ~CKMD_AMPCFG1_INTERVAL_M;
     48c:	68c1      	ldr	r1, [r0, #12]
     48e:	4a20      	ldr	r2, [pc, #128]	@ (510 <Power_init+0xf0>)
     490:	400a      	ands	r2, r1
     492:	60c2      	str	r2, [r0, #12]
    uint32_t tmp = HWREG(CKMD_BASE + CKMD_O_HFXTTARG) & ~CKMD_HFXTTARG_IREF_M;
     494:	6801      	ldr	r1, [r0, #0]
     496:	220f      	movs	r2, #15
     498:	0312      	lsls	r2, r2, #12
     49a:	4391      	bics	r1, r2
    tmp |= (iref << CKMD_HFXTTARG_IREF_S) & CKMD_HFXTTARG_IREF_M;
     49c:	19c9      	adds	r1, r1, r7
    HWREG(CKMD_BASE + CKMD_O_HFXTTARG) = tmp;
     49e:	6001      	str	r1, [r0, #0]
                     HFXT_AMP_COMP_START_TIMEOUT_US / ClockP_getSystemTickPeriod(),
     4a0:	f000 fe72 	bl	1188 <ClockP_getSystemTickPeriod>
     4a4:	4601      	mov	r1, r0
     4a6:	207d      	movs	r0, #125	@ 0x7d
     4a8:	0080      	lsls	r0, r0, #2
     4aa:	f000 fcfd 	bl	ea8 <__aeabi_uidiv>
     4ae:	4602      	mov	r2, r0
    ClockP_construct(&hfxtAmpCompClock,
     4b0:	4d18      	ldr	r5, [pc, #96]	@ (514 <Power_init+0xf4>)
     4b2:	4919      	ldr	r1, [pc, #100]	@ (518 <Power_init+0xf8>)
     4b4:	4628      	mov	r0, r5
     4b6:	4623      	mov	r3, r4
     4b8:	f000 f91c 	bl	6f4 <ClockP_construct>
    PowerCC23X0_startHFXT();
     4bc:	f000 fa32 	bl	924 <PowerCC23X0_startHFXT>
    ClockP_start(&hfxtAmpCompClock);
     4c0:	4628      	mov	r0, r5
     4c2:	f000 fb79 	bl	bb8 <ClockP_start>
     4c6:	4a0c      	ldr	r2, [pc, #48]	@ (4f8 <Power_init+0xd8>)
    HWREG(CKMD_BASE + CKMD_O_HFTRACKCTL) |= CKMD_HFTRACKCTL_EN_M | CKMD_HFTRACKCTL_REFCLK_HFXT;
     4c8:	6810      	ldr	r0, [r2, #0]
     4ca:	07f1      	lsls	r1, r6, #31
     4cc:	4301      	orrs	r1, r0
     4ce:	6011      	str	r1, [r2, #0]
     4d0:	4812      	ldr	r0, [pc, #72]	@ (51c <Power_init+0xfc>)
     4d2:	2110      	movs	r1, #16
    HWREG(EVTULL_BASE + EVTULL_O_WKUPMASK) = EVTULL_WKUPMASK_AON_RTC_COMB_M;
     4d4:	6001      	str	r1, [r0, #0]
     4d6:	2000      	movs	r0, #0
}
     4d8:	b001      	add	sp, #4
     4da:	bdf0      	pop	{r4, r5, r6, r7, pc}
     4dc:	200000a5 	.word	0x200000a5
     4e0:	000011a0 	.word	0x000011a0
     4e4:	200000a6 	.word	0x200000a6
     4e8:	2000009c 	.word	0x2000009c
     4ec:	200000a0 	.word	0x200000a0
     4f0:	200000f0 	.word	0x200000f0
     4f4:	0000008d 	.word	0x0000008d
     4f8:	400010a4 	.word	0x400010a4
     4fc:	2000010c 	.word	0x2000010c
     500:	00001141 	.word	0x00001141
     504:	40002058 	.word	0x40002058
     508:	40022060 	.word	0x40022060
     50c:	4000111c 	.word	0x4000111c
     510:	fffff000 	.word	0xfffff000
     514:	200000ac 	.word	0x200000ac
     518:	00000da9 	.word	0x00000da9
     51c:	40005800 	.word	0x40005800

00000520 <Power_sleep>:
{
     520:	b5f0      	push	{r4, r5, r6, r7, lr}
     522:	b081      	sub	sp, #4
    return (list->head == NULL);
     524:	4835      	ldr	r0, [pc, #212]	@ (5fc <Power_sleep+0xdc>)
     526:	6805      	ldr	r5, [r0, #0]
     528:	e000      	b.n	52c <Power_sleep+0xc>
    return (elem->next);
     52a:	682d      	ldr	r5, [r5, #0]
     52c:	2d00      	cmp	r5, #0
     52e:	d00c      	beq.n	54a <Power_sleep+0x2a>
            if ((((Power_NotifyObj *)elem)->eventTypes & eventType) != 0U)
     530:	7a28      	ldrb	r0, [r5, #8]
     532:	07c0      	lsls	r0, r0, #31
     534:	d0f9      	beq.n	52a <Power_sleep+0xa>
                notifyFxn = ((Power_NotifyObj *)elem)->notifyFxn;
     536:	68eb      	ldr	r3, [r5, #12]
                clientArg = ((Power_NotifyObj *)elem)->clientArg;
     538:	692a      	ldr	r2, [r5, #16]
     53a:	2001      	movs	r0, #1
     53c:	2400      	movs	r4, #0
                notifyStatus = (int_fast16_t)(*(Power_NotifyFxn)notifyFxn)(eventType, 0, clientArg);
     53e:	4621      	mov	r1, r4
     540:	4798      	blx	r3
                if (notifyStatus != Power_NOTIFYDONE)
     542:	2800      	cmp	r0, #0
     544:	d0f1      	beq.n	52a <Power_sleep+0xa>
     546:	43e4      	mvns	r4, r4
     548:	e04a      	b.n	5e0 <Power_sleep+0xc0>
     54a:	492d      	ldr	r1, [pc, #180]	@ (600 <Power_sleep+0xe0>)
     54c:	482d      	ldr	r0, [pc, #180]	@ (604 <Power_sleep+0xe4>)
 * PowerCC23X0_startContHfxtAmpMeasurements().
 */
static uint32_t PowerCC23X0_getHfxtAmpMeasurement(void)
{
    /* Read result in AMPADCSTAT */
    uint32_t ampAdcStat = HWREG(CKMD_BASE + CKMD_O_AMPADCSTAT);
     54e:	6c02      	ldr	r2, [r0, #64]	@ 0x40
     550:	257f      	movs	r5, #127	@ 0x7f
    uint32_t peakRaw    = (ampAdcStat & CKMD_AMPADCSTAT_PEAKRAW_M) >> CKMD_AMPADCSTAT_PEAKRAW_S;
    uint32_t bias       = (ampAdcStat & CKMD_AMPADCSTAT_BIAS_M) >> CKMD_AMPADCSTAT_BIAS_S;
     552:	4015      	ands	r5, r2
    /* Compute the PEAK value in SW to be able to handle negative values, which
     * can occur for small amplitudes.
     * In case of negative values, the result will be capped at 0.
     * According to the register descriptions PEAK = 2*PEAKRAW - BIAS
     */
    uint32_t result = 2 * peakRaw > bias ? 2 * peakRaw - bias : 0;
     554:	0bd2      	lsrs	r2, r2, #15
     556:	26fe      	movs	r6, #254	@ 0xfe
     558:	4016      	ands	r6, r2
     55a:	1b73      	subs	r3, r6, r5
     55c:	2400      	movs	r4, #0
     55e:	42ae      	cmp	r6, r5
     560:	d200      	bcs.n	564 <Power_sleep+0x44>
     562:	4623      	mov	r3, r4
//! \sa CKMD_O_HFXTTARG for trim range
//
//*****************************************************************************
__STATIC_INLINE uint32_t CKMDGetTargetIrefTrim(void)
{
    return (HWREG(CKMD_BASE + CKMD_O_HFXTTARG) & CKMD_HFXTTARG_IREF_M) >> CKMD_HFXTTARG_IREF_S;
     564:	680a      	ldr	r2, [r1, #0]
     566:	0412      	lsls	r2, r2, #16
     568:	0f15      	lsrs	r5, r2, #28
     56a:	2201      	movs	r2, #1
    if (hfxtAmplitude < 10 && currentIrefTrim < HFXT_TARGET_IREF_MAX)
     56c:	2b10      	cmp	r3, #16
     56e:	4616      	mov	r6, r2
     570:	d800      	bhi.n	574 <Power_sleep+0x54>
     572:	4626      	mov	r6, r4
     574:	2d03      	cmp	r5, #3
     576:	4617      	mov	r7, r2
     578:	d800      	bhi.n	57c <Power_sleep+0x5c>
     57a:	4627      	mov	r7, r4
     57c:	403e      	ands	r6, r7
     57e:	4274      	negs	r4, r6
     580:	2d08      	cmp	r5, #8
     582:	d233      	bcs.n	5ec <Power_sleep+0xcc>
     584:	2b0a      	cmp	r3, #10
     586:	d234      	bcs.n	5f2 <Power_sleep+0xd2>
    if (adjustment != 0)
     588:	2a00      	cmp	r2, #0
     58a:	d00f      	beq.n	5ac <Power_sleep+0x8c>
     58c:	680b      	ldr	r3, [r1, #0]
    uint32_t tmp = HWREG(CKMD_BASE + CKMD_O_HFXTTARG) & ~CKMD_HFXTTARG_IREF_M;
     58e:	680c      	ldr	r4, [r1, #0]
     590:	250f      	movs	r5, #15
     592:	032d      	lsls	r5, r5, #12
     594:	43ac      	bics	r4, r5
    tmp |= (iref << CKMD_HFXTTARG_IREF_S) & CKMD_HFXTTARG_IREF_M;
     596:	0312      	lsls	r2, r2, #12
     598:	189a      	adds	r2, r3, r2
     59a:	402a      	ands	r2, r5
     59c:	18a2      	adds	r2, r4, r2
    HWREG(CKMD_BASE + CKMD_O_HFXTTARG) = tmp;
     59e:	600a      	str	r2, [r1, #0]
        HWREG(CKMD_BASE + CKMD_O_HFXTCTL) &= ~CKMD_HFXTCTL_EN_M;
     5a0:	4601      	mov	r1, r0
     5a2:	3924      	subs	r1, #36	@ 0x24
     5a4:	680a      	ldr	r2, [r1, #0]
     5a6:	2301      	movs	r3, #1
     5a8:	439a      	bics	r2, r3
     5aa:	600a      	str	r2, [r1, #0]
    HWREG(CKMD_BASE + CKMD_O_AMPADCCTL) &= ~CKMD_AMPADCCTL_SWOVR;
     5ac:	4601      	mov	r1, r0
     5ae:	3908      	subs	r1, #8
     5b0:	680a      	ldr	r2, [r1, #0]
     5b2:	4b15      	ldr	r3, [pc, #84]	@ (608 <Power_sleep+0xe8>)
     5b4:	401a      	ands	r2, r3
     5b6:	600a      	str	r2, [r1, #0]
    HWREG(CKMD_BASE + CKMD_O_LDOCTL) &= ~CKMD_LDOCTL_SWOVR_M;
     5b8:	6801      	ldr	r1, [r0, #0]
     5ba:	4019      	ands	r1, r3
     5bc:	6001      	str	r1, [r0, #0]
     5be:	2400      	movs	r4, #0
    HWREG(CKMD_BASE + CKMD_O_LDOCTL) = 0x0U;
     5c0:	6004      	str	r4, [r0, #0]
 */
__STATIC_FORCEINLINE uint32_t __get_CONTROL(void)
{
  uint32_t result;

  __ASM volatile ("MRS %0, control" : "=r" (result) );
     5c2:	f3ef 8014 	mrs	r0, CONTROL
    controlPreStandby = __get_CONTROL();
     5c6:	4d11      	ldr	r5, [pc, #68]	@ (60c <Power_sleep+0xec>)
     5c8:	6028      	str	r0, [r5, #0]
  \details Writes the given value to the Control Register.
  \param [in]    control  Control Register value to set
 */
__STATIC_FORCEINLINE void __set_CONTROL(uint32_t control)
{
  __ASM volatile ("MSR control, %0" : : "r" (control) : "memory");
     5ca:	f384 8814 	msr	CONTROL, r4
     5ce:	4810      	ldr	r0, [pc, #64]	@ (610 <Power_sleep+0xf0>)
    HapiEnterStandby(NULL);
     5d0:	6801      	ldr	r1, [r0, #0]
     5d2:	4620      	mov	r0, r4
     5d4:	4788      	blx	r1
    __set_CONTROL(controlPreStandby);
     5d6:	6828      	ldr	r0, [r5, #0]
     5d8:	f380 8814 	msr	CONTROL, r0
    PowerCC23X0_startHFXT();
     5dc:	f000 f9a2 	bl	924 <PowerCC23X0_startHFXT>
     5e0:	480c      	ldr	r0, [pc, #48]	@ (614 <Power_sleep+0xf4>)
     5e2:	2100      	movs	r1, #0
     5e4:	7001      	strb	r1, [r0, #0]
}
     5e6:	4620      	mov	r0, r4
     5e8:	b001      	add	sp, #4
     5ea:	bdf0      	pop	{r4, r5, r6, r7, pc}
     5ec:	4622      	mov	r2, r4
    if (hfxtAmplitude < 10 && currentIrefTrim < HFXT_TARGET_IREF_MAX)
     5ee:	2b0a      	cmp	r3, #10
     5f0:	d3ca      	bcc.n	588 <Power_sleep+0x68>
     5f2:	4622      	mov	r2, r4
    if (adjustment != 0)
     5f4:	2a00      	cmp	r2, #0
     5f6:	d1c9      	bne.n	58c <Power_sleep+0x6c>
     5f8:	e7d8      	b.n	5ac <Power_sleep+0x8c>
     5fa:	46c0      	nop			@ (mov r8, r8)
     5fc:	20000130 	.word	0x20000130
     600:	4000111c 	.word	0x4000111c
     604:	400010a8 	.word	0x400010a8
     608:	7fffffff 	.word	0x7fffffff
     60c:	20000148 	.word	0x20000148
     610:	0f00004c 	.word	0x0f00004c
     614:	200000a7 	.word	0x200000a7

00000618 <PowerLPF3_sleep>:

/*
 *  ======== PowerLPF3_sleep ========
 */
int_fast16_t PowerLPF3_sleep(uint32_t nextEventTimeUs)
{
     618:	b5f0      	push	{r4, r5, r6, r7, lr}
     61a:	b089      	sub	sp, #36	@ 0x24
     61c:	9003      	str	r0, [sp, #12]
     61e:	4f2e      	ldr	r7, [pc, #184]	@ (6d8 <PowerLPF3_sleep+0xc0>)
     620:	4a2e      	ldr	r2, [pc, #184]	@ (6dc <PowerLPF3_sleep+0xc4>)
     622:	482f      	ldr	r0, [pc, #188]	@ (6e0 <PowerLPF3_sleep+0xc8>)
//
//*****************************************************************************
__STATIC_INLINE void SysTickDisable(void)
{
    // Disable SysTick.
    HWREG(SYSTICK_BASE + SYSTICK_O_CSR) &= ~(SYSTICK_CSR_ENABLE);
     624:	6801      	ldr	r1, [r0, #0]
     626:	2301      	movs	r3, #1
     628:	9300      	str	r3, [sp, #0]
     62a:	4399      	bics	r1, r3
     62c:	6001      	str	r1, [r0, #0]

    /* Disable SysTick */
    SysTickDisable();

    /* Save SysTimer IMASK to restore afterwards */
    sysTimerIMASK = HWREG(SYSTIM_BASE + SYSTIM_O_IMASK);
     62e:	6810      	ldr	r0, [r2, #0]

    /* Get current armed status of all SysTimer channels */
    sysTimerARMSET = HWREG(SYSTIM_BASE + SYSTIM_O_ARMSET);
     630:	9002      	str	r0, [sp, #8]
     632:	6878      	ldr	r0, [r7, #4]
     634:	9001      	str	r0, [sp, #4]
     636:	4d2b      	ldr	r5, [pc, #172]	@ (6e4 <PowerLPF3_sleep+0xcc>)
     638:	a804      	add	r0, sp, #16

    /* Store SysTimer timeouts */
    memcpy(sysTimerTimeouts, (void *)(SYSTIM_BASE + SYSTIM_O_CH0CCSR), sizeof(sysTimerTimeouts));
     63a:	4629      	mov	r1, r5
     63c:	c90c      	ldmia	r1!, {r2, r3}
     63e:	c00c      	stmia	r0!, {r2, r3}
     640:	c94c      	ldmia	r1!, {r2, r3, r6}
     642:	c04c      	stmia	r0!, {r2, r3, r6}
     644:	4828      	ldr	r0, [pc, #160]	@ (6e8 <PowerLPF3_sleep+0xd0>)
     646:	2104      	movs	r1, #4
     * We can consume that interrupt event without vectoring to the ISR and then
     * change the event fabric signal back to the SysTimer.
     * Thus, there is no need to swap out the actual interrupt function of the
     * clockHwi.
     */
    EVTSVTConfigureEvent(EVTSVT_SUB_CPUIRQ16, EVTSVT_PUB_AON_RTC_COMB);
     648:	f000 fd6e 	bl	1128 <EVTSVTConfigureEvent>
     64c:	2620      	movs	r6, #32

    /* Clear interrupt in case it triggered since we disabled interrupts */
    HwiP_clearInterrupt(INT_CPUIRQ16);
     64e:	4630      	mov	r0, r6
     650:	f000 fd87 	bl	1162 <HwiP_clearInterrupt>

    soonestDelta = nextEventTimeUs - HWREG(SYSTIM_BASE + SYSTIM_O_TIME1U);
     654:	4638      	mov	r0, r7
     656:	383c      	subs	r0, #60	@ 0x3c
     658:	6800      	ldr	r0, [r0, #0]
     65a:	4c24      	ldr	r4, [pc, #144]	@ (6ec <PowerLPF3_sleep+0xd4>)

    /* Get current time in 8us resolution. Must be done as close as possible to
     * getting the SysTimer time above.
     */
    rtcCurrTime = HWREG(RTC_BASE + RTC_O_TIME8U);
     65c:	69a1      	ldr	r1, [r4, #24]

    /* Ensure the device wakes up early enough to reinitialise the
     * HW and take care of housekeeping.
     */
    soonestDelta -= PowerCC23X0_WAKEDELAYSTANDBY;
     65e:	9a03      	ldr	r2, [sp, #12]
     660:	1a10      	subs	r0, r2, r0
     662:	38b9      	subs	r0, #185	@ 0xb9

    /* Convert delta to RTC units */
    soonestDelta /= RTC_TO_SYSTIMER_TICKS;
     664:	08c0      	lsrs	r0, r0, #3

    /* RTC channel 0 compare is automatically armed upon writing the
     * compare value. It will automatically be disarmed when it
     * triggers.
     */
    HWREG(RTC_BASE + RTC_O_CH0CC8U) = rtcCurrTime + soonestDelta;
     666:	1840      	adds	r0, r0, r1
     668:	62a0      	str	r0, [r4, #40]	@ 0x28

    /* Go to standby mode */
    result = Power_sleep(PowerLPF3_STANDBY);
     66a:	f7ff ff59 	bl	520 <Power_sleep>
     66e:	9003      	str	r0, [sp, #12]
     670:	9800      	ldr	r0, [sp, #0]
     * NVIC bit but before we swap event fabric subscribers for the
     * shared interrupt line, we will be left with a pending interrupt
     * in the NVIC that the ClockP callback may not gracefully handle
     * since it did not cause it itself.
     */
    HWREG(RTC_BASE + RTC_O_ARMCLR) = RTC_ARMCLR_CH0_CLR;
     672:	60e0      	str	r0, [r4, #12]

    /* Clear the RTC wakeup event */
    HWREG(RTC_BASE + RTC_O_ICLR) = RTC_ICLR_EV0_CLR;
     674:	6560      	str	r0, [r4, #84]	@ 0x54
//
//*****************************************************************************
__STATIC_INLINE void ULLSync(void)
{
    // Read an RTC register to ensure that previous ULL writes have taken effect
    HWREG(RTC_BASE + RTC_O_DESC);
     676:	6820      	ldr	r0, [r4, #0]
     * the NVIC re-asserting on a set RIS.
     */
    ULLSync();

    /* Clear any pending interrupt in the NVIC */
    HwiP_clearInterrupt(INT_CPUIRQ16);
     678:	4630      	mov	r0, r6
     67a:	f000 fd72 	bl	1162 <HwiP_clearInterrupt>
     67e:	211b      	movs	r1, #27

    /* Switch CPUIRQ16 in event fabric back to SysTimer */
    EVTSVTConfigureEvent(EVTSVT_SUB_CPUIRQ16, EVTSVT_PUB_SYSTIM0);
     680:	4819      	ldr	r0, [pc, #100]	@ (6e8 <PowerLPF3_sleep+0xd0>)
     682:	f000 fd51 	bl	1128 <EVTSVTConfigureEvent>
     * more than one LFCLK period.
     *
     * We need to wait both for RUN to be set and SYNCUP to go low. Any
     * other register state will cause undefined behaviour.
     */
    while (HWREG(SYSTIM_BASE + SYSTIM_O_STATUS) != SYSTIM_STATUS_VAL_RUN) {}
     686:	6838      	ldr	r0, [r7, #0]
     688:	2801      	cmp	r0, #1
     68a:	d005      	beq.n	698 <PowerLPF3_sleep+0x80>
     68c:	6838      	ldr	r0, [r7, #0]
     68e:	2801      	cmp	r0, #1
     690:	d002      	beq.n	698 <PowerLPF3_sleep+0x80>
     692:	6838      	ldr	r0, [r7, #0]
     694:	2801      	cmp	r0, #1
     696:	d1f6      	bne.n	686 <PowerLPF3_sleep+0x6e>
     698:	a804      	add	r0, sp, #16

    /* Restore SysTimer timeouts */
    memcpy((void *)(SYSTIM_BASE + SYSTIM_O_CH0CCSR), sysTimerTimeouts, sizeof(sysTimerTimeouts));
     69a:	c806      	ldmia	r0!, {r1, r2}
     69c:	c506      	stmia	r5!, {r1, r2}
     69e:	c80e      	ldmia	r0!, {r1, r2, r3}
     6a0:	c50e      	stmia	r5!, {r1, r2, r3}

    /* Restore SysTimer armed state. This will rearm all previously
     * armed timeouts restored above and cause any that occurred in the
     * past to trigger immediately.
     */
    HWREG(SYSTIM_BASE + SYSTIM_O_ARMSET) = sysTimerARMSET;
     6a2:	9801      	ldr	r0, [sp, #4]
     6a4:	6078      	str	r0, [r7, #4]

    /* Restore SysTimer IMASK */
    HWREG(SYSTIM_BASE + SYSTIM_O_IMASK) = sysTimerIMASK;
     6a6:	480d      	ldr	r0, [pc, #52]	@ (6dc <PowerLPF3_sleep+0xc4>)
     6a8:	9902      	ldr	r1, [sp, #8]
     6aa:	6001      	str	r1, [r0, #0]

    /* Re-configure LRFD clocks */
    LRFDApplyClockDependencies();
     6ac:	f000 fbac 	bl	e08 <LRFDApplyClockDependencies>
    return (list->head == NULL);
     6b0:	480f      	ldr	r0, [pc, #60]	@ (6f0 <PowerLPF3_sleep+0xd8>)
     6b2:	6804      	ldr	r4, [r0, #0]
     6b4:	e000      	b.n	6b8 <PowerLPF3_sleep+0xa0>
    return (elem->next);
     6b6:	6824      	ldr	r4, [r4, #0]
     6b8:	2c00      	cmp	r4, #0
     6ba:	d009      	beq.n	6d0 <PowerLPF3_sleep+0xb8>
            if ((((Power_NotifyObj *)elem)->eventTypes & eventType) != 0U)
     6bc:	7a20      	ldrb	r0, [r4, #8]
     6be:	0740      	lsls	r0, r0, #29
     6c0:	d5f9      	bpl.n	6b6 <PowerLPF3_sleep+0x9e>
                notifyFxn = ((Power_NotifyObj *)elem)->notifyFxn;
     6c2:	68e3      	ldr	r3, [r4, #12]
                clientArg = ((Power_NotifyObj *)elem)->clientArg;
     6c4:	6922      	ldr	r2, [r4, #16]
     6c6:	2004      	movs	r0, #4
     6c8:	2100      	movs	r1, #0
                notifyStatus = (int_fast16_t)(*(Power_NotifyFxn)notifyFxn)(eventType, 0, clientArg);
     6ca:	4798      	blx	r3
                if (notifyStatus != Power_NOTIFYDONE)
     6cc:	2800      	cmp	r0, #0
     6ce:	d0f2      	beq.n	6b6 <PowerLPF3_sleep+0x9e>
     * The callback needs to go out after the SysTimer is restored
     * such that notifications can invoke RCL and ClockP APIs if needed.
     */
    PowerCC23X0_notify(PowerLPF3_AWAKE_STANDBY);

    return result;
     6d0:	9803      	ldr	r0, [sp, #12]
     6d2:	b009      	add	sp, #36	@ 0x24
     6d4:	bdf0      	pop	{r4, r5, r6, r7, pc}
     6d6:	46c0      	nop			@ (mov r8, r8)
     6d8:	40022140 	.word	0x40022140
     6dc:	40022044 	.word	0x40022044
     6e0:	e000e010 	.word	0xe000e010
     6e4:	4002214c 	.word	0x4002214c
     6e8:	00000444 	.word	0x00000444
     6ec:	40002000 	.word	0x40002000
     6f0:	20000130 	.word	0x20000130

000006f4 <ClockP_construct>:

/*
 *  ======== ClockP_construct ========
 */
ClockP_Handle ClockP_construct(ClockP_Struct *handle, ClockP_Fxn fxn, uint32_t timeout, ClockP_Params *params)
{
     6f4:	b5f0      	push	{r4, r5, r6, r7, lr}
     6f6:	b081      	sub	sp, #4
     6f8:	4604      	mov	r4, r0
    ClockP_Obj *obj = (ClockP_Obj *)handle;

    if (handle == NULL)
     6fa:	2800      	cmp	r0, #0
     6fc:	d048      	beq.n	790 <ClockP_construct+0x9c>
    {
        return NULL;
    }

    if (params == NULL)
     6fe:	2b00      	cmp	r3, #0
     700:	d100      	bne.n	704 <ClockP_construct+0x10>
     702:	4b25      	ldr	r3, [pc, #148]	@ (798 <ClockP_construct+0xa4>)
    {
        params = &ClockP_defaultParams;
    }

    obj->period  = params->period;
     704:	6858      	ldr	r0, [r3, #4]
     706:	6120      	str	r0, [r4, #16]
    obj->timeout = timeout;
     708:	60a2      	str	r2, [r4, #8]
    obj->fxn     = fxn;
     70a:	61a1      	str	r1, [r4, #24]
    obj->arg     = params->arg;
     70c:	6898      	ldr	r0, [r3, #8]
     70e:	61e0      	str	r0, [r4, #28]
     710:	2000      	movs	r0, #0
    obj->active  = false;
     712:	7520      	strb	r0, [r4, #20]
     714:	461d      	mov	r5, r3

    ClockP_startup();
     716:	f000 f9af 	bl	a78 <ClockP_startup>

    /* Clock object is always placed on the ClockP work queue */
    List_put(&ClockP_list, &obj->elem);
     71a:	4820      	ldr	r0, [pc, #128]	@ (79c <ClockP_construct+0xa8>)
     71c:	4621      	mov	r1, r4
     71e:	f000 fca3 	bl	1068 <List_put>

    if (params->startFlag)
     722:	7828      	ldrb	r0, [r5, #0]
     724:	2800      	cmp	r0, #0
     726:	d033      	beq.n	790 <ClockP_construct+0x9c>
     728:	4d1d      	ldr	r5, [pc, #116]	@ (7a0 <ClockP_construct+0xac>)
 *  to true.
 */
void ClockP_start(ClockP_Handle handle)
{
    ClockP_Obj *obj = (ClockP_Obj *)handle;
    uintptr_t key   = HwiP_disable();
     72a:	f000 fd03 	bl	1134 <HwiP_disable>
    uint32_t scheduledDelta;
    uint32_t remainingTicks;
    bool objectServiced = false;

    /* if Clock is NOT currently processing its Q */
    if (ClockP_inWorkFunc == false)
     72e:	491d      	ldr	r1, [pc, #116]	@ (7a4 <ClockP_construct+0xb0>)
     730:	780a      	ldrb	r2, [r1, #0]
     732:	6829      	ldr	r1, [r5, #0]
     734:	2a00      	cmp	r2, #0
     736:	d007      	beq.n	748 <ClockP_construct+0x54>
    {
        /* Get current tick count */
        nowTick = getClockPTick();

        /* Start new Clock object */
        obj->currTimeout = nowTick + obj->timeout;
     738:	68a2      	ldr	r2, [r4, #8]
     73a:	1851      	adds	r1, r2, r1
     73c:	60e1      	str	r1, [r4, #12]
     73e:	2101      	movs	r1, #1
        obj->active      = true;
     740:	7521      	strb	r1, [r4, #20]

        if (ClockP_inWorkFunc == true)
        {
            ClockP_startOrStopDuringWorkFunc = true;
     742:	4a1b      	ldr	r2, [pc, #108]	@ (7b0 <ClockP_construct+0xbc>)
     744:	7011      	strb	r1, [r2, #0]
     746:	e021      	b.n	78c <ClockP_construct+0x98>
        nowDelta       = nowTick - ClockP_ticks;
     748:	4b17      	ldr	r3, [pc, #92]	@ (7a8 <ClockP_construct+0xb4>)
     74a:	681a      	ldr	r2, [r3, #0]
     74c:	1a8f      	subs	r7, r1, r2
        scheduledTick  = ClockP_nextScheduledTick;
     74e:	4e17      	ldr	r6, [pc, #92]	@ (7ac <ClockP_construct+0xb8>)
     750:	6832      	ldr	r2, [r6, #0]
        scheduledDelta = scheduledTick - ClockP_ticks;
     752:	681b      	ldr	r3, [r3, #0]
     754:	1ad3      	subs	r3, r2, r3
        if (nowDelta <= scheduledDelta)
     756:	429f      	cmp	r7, r3
     758:	d906      	bls.n	768 <ClockP_construct+0x74>
        nowTick = getClockPTick();
     75a:	6829      	ldr	r1, [r5, #0]
        obj->currTimeout = nowTick + obj->timeout;
     75c:	68a2      	ldr	r2, [r4, #8]
     75e:	1851      	adds	r1, r2, r1
     760:	60e1      	str	r1, [r4, #12]
     762:	2101      	movs	r1, #1
        obj->active      = true;
     764:	7521      	strb	r1, [r4, #20]
     766:	e011      	b.n	78c <ClockP_construct+0x98>
            obj->currTimeout = nowTick + obj->timeout;
     768:	68a7      	ldr	r7, [r4, #8]
     76a:	187b      	adds	r3, r7, r1
     76c:	60e3      	str	r3, [r4, #12]
     76e:	2301      	movs	r3, #1
            obj->active      = true;
     770:	7523      	strb	r3, [r4, #20]
            remainingTicks = scheduledTick - nowTick;
     772:	1a51      	subs	r1, r2, r1
            if (obj->timeout < remainingTicks)
     774:	428f      	cmp	r7, r1
     776:	d209      	bcs.n	78c <ClockP_construct+0x98>
                ClockP_scheduleNextTick(obj->currTimeout);
     778:	68e7      	ldr	r7, [r4, #12]
    HWREG(SYSTIM_BASE + SYSTIM_O_ARMCLR) = SYSTIM_ARMCLR_CH0_CLR;
     77a:	646b      	str	r3, [r5, #68]	@ 0x44
     77c:	2120      	movs	r1, #32
     77e:	9000      	str	r0, [sp, #0]
    HwiP_clearInterrupt(INT_CPUIRQ16);
     780:	4608      	mov	r0, r1
     782:	f000 fcee 	bl	1162 <HwiP_clearInterrupt>
     786:	9800      	ldr	r0, [sp, #0]
    HWREG(SYSTIM_BASE + SYSTIM_O_CH0CC) = newSystim;
     788:	61ef      	str	r7, [r5, #28]
    ClockP_nextScheduledTick = absTick;
     78a:	6037      	str	r7, [r6, #0]
        }
    }

    HwiP_restore(key);
     78c:	f000 fcc4 	bl	1118 <HwiP_restore>
}
     790:	4620      	mov	r0, r4
     792:	b001      	add	sp, #4
     794:	bdf0      	pop	{r4, r5, r6, r7, pc}
     796:	46c0      	nop			@ (mov r8, r8)
     798:	00001194 	.word	0x00001194
     79c:	20000128 	.word	0x20000128
     7a0:	40022104 	.word	0x40022104
     7a4:	2000013d 	.word	0x2000013d
     7a8:	20000144 	.word	0x20000144
     7ac:	20000140 	.word	0x20000140
     7b0:	2000013e 	.word	0x2000013e

000007b4 <IntSetPriority>:
//
// Sets the priority of an interrupt
//
//*****************************************************************************
void IntSetPriority(uint32_t intNum, uint8_t priority)
{
     7b4:	b5f0      	push	{r4, r5, r6, r7, lr}
     7b6:	b083      	sub	sp, #12
    uint32_t priorityRegIndex;
    volatile uint32_t *address;

    // System exception priorities are set in the SHPR registers.
    // Indexing starts at SHPR2 (8 <= intNum <= 11)
    if (intNum < 16)
     7b8:	4602      	mov	r2, r0
     7ba:	3a10      	subs	r2, #16
     7bc:	d304      	bcc.n	7c8 <IntSetPriority+0x14>
     7be:	4614      	mov	r4, r2
     7c0:	2810      	cmp	r0, #16
     7c2:	d205      	bcs.n	7d0 <IntSetPriority+0x1c>
     7c4:	4e24      	ldr	r6, [pc, #144]	@ (858 <IntSetPriority+0xa4>)
     7c6:	e004      	b.n	7d2 <IntSetPriority+0x1e>
     7c8:	4604      	mov	r4, r0
     7ca:	3c08      	subs	r4, #8
     7cc:	2810      	cmp	r0, #16
     7ce:	d3f9      	bcc.n	7c4 <IntSetPriority+0x10>
     7d0:	4e22      	ldr	r6, [pc, #136]	@ (85c <IntSetPriority+0xa8>)
    {
        address          = NVIC->IP;
        priorityRegIndex = intNum - 16;
    }

    offset = priorityRegIndex >> 2;
     7d2:	08a3      	lsrs	r3, r4, #2
    shift  = (priorityRegIndex & 0x3) * 8;
     7d4:	07a4      	lsls	r4, r4, #30
     7d6:	0ee4      	lsrs	r4, r4, #27
     7d8:	25ff      	movs	r5, #255	@ 0xff
    mask   = 0xff << shift;
     7da:	40a5      	lsls	r5, r4
    ASSERT(intNum < NUM_INTERRUPTS);

    bool isEnabled = false;

    // Determine the interrupt to check.
    if (intNum == INT_SYSTICK)
     7dc:	280f      	cmp	r0, #15
     7de:	d109      	bne.n	7f4 <IntSetPriority+0x40>
     7e0:	af00      	add	r7, sp, #0
     7e2:	c758      	stmia	r7!, {r3, r4, r6}
     7e4:	4c20      	ldr	r4, [pc, #128]	@ (868 <IntSetPriority+0xb4>)
    {
        // Check the System Tick interrupt.
        isEnabled = SysTick->CTRL & SysTick_CTRL_TICKINT_Msk ? true : false;
     7e6:	6827      	ldr	r7, [r4, #0]
     7e8:	2602      	movs	r6, #2
    }
     7ea:	4037      	ands	r7, r6

    // Determine the interrupt to disable.
    if (intNum == INT_SYSTICK)
    {
        // Disable the System Tick interrupt.
        SysTick->CTRL &= ~SysTick_CTRL_TICKINT_Msk;
     7ec:	6823      	ldr	r3, [r4, #0]
     7ee:	43b3      	bics	r3, r6
     7f0:	6023      	str	r3, [r4, #0]
     7f2:	e00a      	b.n	80a <IntSetPriority+0x56>
    else if ((intNum >= 16) && (intNum <= 47))
     7f4:	2a20      	cmp	r2, #32
     7f6:	d21e      	bcs.n	836 <IntSetPriority+0x82>
     7f8:	af00      	add	r7, sp, #0
     7fa:	c758      	stmia	r7!, {r3, r4, r6}
     7fc:	4b18      	ldr	r3, [pc, #96]	@ (860 <IntSetPriority+0xac>)
        isEnabled = (NVIC->ISER[0] & (1 << (intNum - 16))) ? true : false;
     7fe:	681f      	ldr	r7, [r3, #0]
     800:	2301      	movs	r3, #1
     802:	4093      	lsls	r3, r2
     804:	401f      	ands	r7, r3
     806:	4e17      	ldr	r6, [pc, #92]	@ (864 <IntSetPriority+0xb0>)
    }
    else if ((intNum >= 16) && (intNum <= 47))
    {
        // Disable the general interrupt.
        NVIC->ICER[0] = 1 << (intNum - 16);
     808:	6033      	str	r3, [r6, #0]
    ipr = address[offset] & ~mask;
     80a:	9b00      	ldr	r3, [sp, #0]
     80c:	009b      	lsls	r3, r3, #2
     80e:	9c02      	ldr	r4, [sp, #8]
     810:	58e6      	ldr	r6, [r4, r3]
     812:	43ae      	bics	r6, r5
     814:	25c0      	movs	r5, #192	@ 0xc0
    ipr |= (priority & INT_PRIORITY_MASK) << shift;
     816:	4029      	ands	r1, r5
     818:	9d01      	ldr	r5, [sp, #4]
     81a:	40a9      	lsls	r1, r5
     81c:	4331      	orrs	r1, r6
    address[offset] = ipr;
     81e:	50e1      	str	r1, [r4, r3]
    if (intNumWasEnabled)
     820:	2f00      	cmp	r7, #0
     822:	d010      	beq.n	846 <IntSetPriority+0x92>
    if (intNum == INT_SYSTICK)
     824:	280f      	cmp	r0, #15
     826:	d110      	bne.n	84a <IntSetPriority+0x96>
     828:	480f      	ldr	r0, [pc, #60]	@ (868 <IntSetPriority+0xb4>)
        SysTick->CTRL |= SysTick_CTRL_TICKINT_Msk;
     82a:	6801      	ldr	r1, [r0, #0]
     82c:	2202      	movs	r2, #2
     82e:	430a      	orrs	r2, r1
     830:	6002      	str	r2, [r0, #0]
}
     832:	b003      	add	sp, #12
     834:	bdf0      	pop	{r4, r5, r6, r7, pc}
    ipr = address[offset] & ~mask;
     836:	0098      	lsls	r0, r3, #2
     838:	5832      	ldr	r2, [r6, r0]
     83a:	43aa      	bics	r2, r5
     83c:	23c0      	movs	r3, #192	@ 0xc0
    ipr |= (priority & INT_PRIORITY_MASK) << shift;
     83e:	4019      	ands	r1, r3
     840:	40a1      	lsls	r1, r4
     842:	4311      	orrs	r1, r2
    address[offset] = ipr;
     844:	5031      	str	r1, [r6, r0]
}
     846:	b003      	add	sp, #12
     848:	bdf0      	pop	{r4, r5, r6, r7, pc}
     84a:	2001      	movs	r0, #1
        NVIC->ISER[0] = 1 << (intNum - 16);
     84c:	4090      	lsls	r0, r2
     84e:	4904      	ldr	r1, [pc, #16]	@ (860 <IntSetPriority+0xac>)
     850:	6008      	str	r0, [r1, #0]
}
     852:	b003      	add	sp, #12
     854:	bdf0      	pop	{r4, r5, r6, r7, pc}
     856:	46c0      	nop			@ (mov r8, r8)
     858:	e000ed1c 	.word	0xe000ed1c
     85c:	e000e400 	.word	0xe000e400
     860:	e000e100 	.word	0xe000e100
     864:	e000e180 	.word	0xe000e180
     868:	e000e010 	.word	0xe000e010

0000086c <PowerCC23X0_lfxtQual>:
{
     86c:	b5f0      	push	{r4, r5, r6, r7, lr}
     86e:	2101      	movs	r1, #1
     870:	020a      	lsls	r2, r1, #8
    if ((maskedStatus & CKMD_MIS_AMPSETTLED_M) != 0U)
     872:	0403      	lsls	r3, r0, #16
     874:	d40d      	bmi.n	892 <PowerCC23X0_lfxtQual+0x26>
    else if ((maskedStatus & CKMD_MIS_TDCDONE_M) != 0U)
     876:	4210      	tst	r0, r2
     878:	d11a      	bne.n	8b0 <PowerCC23X0_lfxtQual+0x44>
     87a:	4602      	mov	r2, r0
     87c:	2000      	movs	r0, #0
    else if ((maskedStatus & CKMD_MIS_LFTICK_M) != 0U)
     87e:	0392      	lsls	r2, r2, #14
     880:	d506      	bpl.n	890 <PowerCC23X0_lfxtQual+0x24>
     882:	4a23      	ldr	r2, [pc, #140]	@ (910 <PowerCC23X0_lfxtQual+0xa4>)
        if (HWREG(CKMD_BASE + CKMD_O_LFCLKSEL) != (CKMD_LFCLKSEL_PRE_LFXT | CKMD_LFCLKSEL_MAIN_LFXT))
     884:	6e93      	ldr	r3, [r2, #104]	@ 0x68
     886:	2b0a      	cmp	r3, #10
     888:	d13a      	bne.n	900 <PowerCC23X0_lfxtQual+0x94>
     88a:	4825      	ldr	r0, [pc, #148]	@ (920 <PowerCC23X0_lfxtQual+0xb4>)
            HWREG(CKMD_BASE + CKMD_O_LFINCOVR) = 0x001E8480U | CKMD_LFINCOVR_OVERRIDE;
     88c:	6450      	str	r0, [r2, #68]	@ 0x44
     88e:	4608      	mov	r0, r1
    return result;
     890:	bdf0      	pop	{r4, r5, r6, r7, pc}
     892:	0248      	lsls	r0, r1, #9
    HWREG(CKMD_BASE + CKMD_O_TDCTRIGSRC) = (uint32_t)tdcTrigSrc;
     894:	1c83      	adds	r3, r0, #2
     896:	4c1d      	ldr	r4, [pc, #116]	@ (90c <PowerCC23X0_lfxtQual+0xa0>)
     898:	6123      	str	r3, [r4, #16]
    HWREG(CKMD_BASE + CKMD_O_TDCTRIGCNTCFG) = CKMD_TDCTRIGCNTCFG_EN;
     89a:	61e1      	str	r1, [r4, #28]
     89c:	4b1c      	ldr	r3, [pc, #112]	@ (910 <PowerCC23X0_lfxtQual+0xa4>)
    HWREG(CKMD_BASE + CKMD_O_TDCCLKSEL) = CKMD_TDCCLKSEL_REFCLK_CLKSVT;
     89e:	66d9      	str	r1, [r3, #108]	@ 0x6c
    HWREG(CKMD_BASE + CKMD_O_TDCTRIGCNTLOAD) = 512;
     8a0:	61a0      	str	r0, [r4, #24]
     8a2:	2000      	movs	r0, #0
    HWREG(CKMD_BASE + CKMD_O_TDCCTL) = CKMD_TDCCTL_CMD_CLR_RESULT;
     8a4:	6020      	str	r0, [r4, #0]
    HWREG(CKMD_BASE + CKMD_O_ICLR) = CKMD_ICLR_TDCDONE;
     8a6:	1f1d      	subs	r5, r3, #4
     8a8:	602a      	str	r2, [r5, #0]
    HWREG(CKMD_BASE + CKMD_O_TDCCTL) = CKMD_TDCCTL_CMD_RUN_SYNC_START;
     8aa:	6021      	str	r1, [r4, #0]
    HWREG(CKMD_BASE + CKMD_O_IMSET) = CKMD_IMASK_TDCDONE;
     8ac:	601a      	str	r2, [r3, #0]
    return result;
     8ae:	bdf0      	pop	{r4, r5, r6, r7, pc}
     8b0:	4c16      	ldr	r4, [pc, #88]	@ (90c <PowerCC23X0_lfxtQual+0xa0>)
        uint32_t edges = HWREG(CKMD_BASE + CKMD_O_TDCRESULT);
     8b2:	68a0      	ldr	r0, [r4, #8]
        if (edges <= (uint32_t)INT32_MAX)
     8b4:	2800      	cmp	r0, #0
     8b6:	d41d      	bmi.n	8f4 <PowerCC23X0_lfxtQual+0x88>
     8b8:	4f17      	ldr	r7, [pc, #92]	@ (918 <PowerCC23X0_lfxtQual+0xac>)
            int32_t edgeDeltaLast = (int32_t)edges - lastTdcCount;
     8ba:	4d18      	ldr	r5, [pc, #96]	@ (91c <PowerCC23X0_lfxtQual+0xb0>)
     8bc:	682e      	ldr	r6, [r5, #0]
            lastTdcCount = (int32_t)edges;
     8be:	6028      	str	r0, [r5, #0]
            isClockGood = (Math_ABS(lastOffset) < 150) && (Math_ABS(edgeOffset) < 150) &&
     8c0:	1bbb      	subs	r3, r7, r6
     8c2:	dc01      	bgt.n	8c8 <PowerCC23X0_lfxtQual+0x5c>
     8c4:	4b13      	ldr	r3, [pc, #76]	@ (914 <PowerCC23X0_lfxtQual+0xa8>)
     8c6:	18f3      	adds	r3, r6, r3
     8c8:	2b95      	cmp	r3, #149	@ 0x95
     8ca:	dc13      	bgt.n	8f4 <PowerCC23X0_lfxtQual+0x88>
     8cc:	1a3b      	subs	r3, r7, r0
     8ce:	d801      	bhi.n	8d4 <PowerCC23X0_lfxtQual+0x68>
     8d0:	4b10      	ldr	r3, [pc, #64]	@ (914 <PowerCC23X0_lfxtQual+0xa8>)
     8d2:	18c3      	adds	r3, r0, r3
     8d4:	2b95      	cmp	r3, #149	@ 0x95
     8d6:	dc0d      	bgt.n	8f4 <PowerCC23X0_lfxtQual+0x88>
     8d8:	1b80      	subs	r0, r0, r6
     8da:	17c3      	asrs	r3, r0, #31
     8dc:	4058      	eors	r0, r3
     8de:	1ac0      	subs	r0, r0, r3
     8e0:	2895      	cmp	r0, #149	@ 0x95
     8e2:	d807      	bhi.n	8f4 <PowerCC23X0_lfxtQual+0x88>
     8e4:	4a0a      	ldr	r2, [pc, #40]	@ (910 <PowerCC23X0_lfxtQual+0xa4>)
            HWREG(CKMD_BASE + CKMD_O_ICLR) = CKMD_ICLR_LFTICK;
     8e6:	1f10      	subs	r0, r2, #4
     8e8:	0449      	lsls	r1, r1, #17
     8ea:	6001      	str	r1, [r0, #0]
            HWREG(CKMD_BASE + CKMD_O_IMSET) = CKMD_IMSET_LFTICK;
     8ec:	6011      	str	r1, [r2, #0]
     8ee:	2000      	movs	r0, #0
            lastTdcCount = 0;
     8f0:	6028      	str	r0, [r5, #0]
    return result;
     8f2:	bdf0      	pop	{r4, r5, r6, r7, pc}
     8f4:	2000      	movs	r0, #0
    HWREG(CKMD_BASE + CKMD_O_TDCCTL) = CKMD_TDCCTL_CMD_CLR_RESULT;
     8f6:	6020      	str	r0, [r4, #0]
    HWREG(CKMD_BASE + CKMD_O_TDCCTL) = CKMD_TDCCTL_CMD_RUN_SYNC_START;
     8f8:	6021      	str	r1, [r4, #0]
    HWREG(CKMD_BASE + CKMD_O_IMSET) = CKMD_IMCLR_TDCDONE;
     8fa:	4905      	ldr	r1, [pc, #20]	@ (910 <PowerCC23X0_lfxtQual+0xa4>)
     8fc:	600a      	str	r2, [r1, #0]
    return result;
     8fe:	bdf0      	pop	{r4, r5, r6, r7, pc}
     900:	0449      	lsls	r1, r1, #17
     902:	230a      	movs	r3, #10
            HWREG(CKMD_BASE + CKMD_O_LFCLKSEL) = CKMD_LFCLKSEL_PRE_LFXT | CKMD_LFCLKSEL_MAIN_LFXT;
     904:	6693      	str	r3, [r2, #104]	@ 0x68
            HWREG(CKMD_BASE + CKMD_O_IMSET) = CKMD_IMSET_LFTICK;
     906:	6011      	str	r1, [r2, #0]
    return result;
     908:	bdf0      	pop	{r4, r5, r6, r7, pc}
     90a:	46c0      	nop			@ (mov r8, r8)
     90c:	40001200 	.word	0x40001200
     910:	40001058 	.word	0x40001058
     914:	ffe91ca0 	.word	0xffe91ca0
     918:	0016e360 	.word	0x0016e360
     91c:	20000090 	.word	0x20000090
     920:	801e8480 	.word	0x801e8480

00000924 <PowerCC23X0_startHFXT>:
{
     924:	b5f0      	push	{r4, r5, r6, r7, lr}
     926:	b081      	sub	sp, #4
     928:	4c22      	ldr	r4, [pc, #136]	@ (9b4 <PowerCC23X0_startHFXT+0x90>)
    if ((HWREG(CKMD_BASE + CKMD_O_HFXTCTL) & CKMD_HFXTCTL_EN_M) != CKMD_HFXTCTL_EN)
     92a:	4625      	mov	r5, r4
     92c:	3d1c      	subs	r5, #28
     92e:	6828      	ldr	r0, [r5, #0]
     930:	07c0      	lsls	r0, r0, #31
     932:	d129      	bne.n	988 <PowerCC23X0_startHFXT+0x64>
     934:	4e20      	ldr	r6, [pc, #128]	@ (9b8 <PowerCC23X0_startHFXT+0x94>)
        HWREG(CKMD_BASE + CKMD_O_LDOCTL) = (CKMD_LDOCTL_SWOVR | CKMD_LDOCTL_STARTCTL | CKMD_LDOCTL_START |
     936:	60a6      	str	r6, [r4, #8]
     938:	4f20      	ldr	r7, [pc, #128]	@ (9bc <PowerCC23X0_startHFXT+0x98>)
        HapiWaitUs(66);
     93a:	6839      	ldr	r1, [r7, #0]
     93c:	2042      	movs	r0, #66	@ 0x42
     93e:	4788      	blx	r1
        HWREG(CKMD_BASE + CKMD_O_LDOCTL) = (CKMD_LDOCTL_SWOVR | CKMD_LDOCTL_HFXTLVLEN | CKMD_LDOCTL_EN);
     940:	1d30      	adds	r0, r6, #4
     942:	60a0      	str	r0, [r4, #8]
     944:	481e      	ldr	r0, [pc, #120]	@ (9c0 <PowerCC23X0_startHFXT+0x9c>)
        HWREG(CKMD_BASE + CKMD_O_AMPADCCTL) = (CKMD_AMPADCCTL_SWOVR | CKMD_AMPADCCTL_PEAKDETEN_ENABLE |
     946:	6020      	str	r0, [r4, #0]
        HapiWaitUs(6);
     948:	6839      	ldr	r1, [r7, #0]
     94a:	2006      	movs	r0, #6
     94c:	4788      	blx	r1
        HWREG(CKMD_BASE + CKMD_O_ICLR) = CKMD_ICLR_ADCBIASUPD;
     94e:	4620      	mov	r0, r4
     950:	384c      	subs	r0, #76	@ 0x4c
     952:	2140      	movs	r1, #64	@ 0x40
     954:	6001      	str	r1, [r0, #0]
        HWREG(CKMD_BASE + CKMD_O_AMPADCCTL) |= CKMD_AMPADCCTL_SARSTRT;
     956:	6821      	ldr	r1, [r4, #0]
     958:	2001      	movs	r0, #1
     95a:	4301      	orrs	r1, r0
     95c:	6021      	str	r1, [r4, #0]
        HWREG(CKMD_BASE + CKMD_O_AMPADCCTL) &= ~CKMD_AMPADCCTL_SARSTRT;
     95e:	6821      	ldr	r1, [r4, #0]
     960:	4381      	bics	r1, r0
     962:	6021      	str	r1, [r4, #0]
        while (!((HWREG(CKMD_BASE + CKMD_O_RIS) & CKMD_RIS_ADCBIASUPD_M) == CKMD_RIS_ADCBIASUPD)) {}
     964:	4621      	mov	r1, r4
     966:	3958      	subs	r1, #88	@ 0x58
     968:	680a      	ldr	r2, [r1, #0]
     96a:	0652      	lsls	r2, r2, #25
     96c:	d405      	bmi.n	97a <PowerCC23X0_startHFXT+0x56>
     96e:	680a      	ldr	r2, [r1, #0]
     970:	0652      	lsls	r2, r2, #25
     972:	d402      	bmi.n	97a <PowerCC23X0_startHFXT+0x56>
     974:	6809      	ldr	r1, [r1, #0]
     976:	0649      	lsls	r1, r1, #25
     978:	d5f4      	bpl.n	964 <PowerCC23X0_startHFXT+0x40>
        HWREG(CKMD_BASE + CKMD_O_AMPADCCTL) &= ~(CKMD_AMPADCCTL_SWOVR_M | CKMD_AMPADCCTL_ADCEN_M);
     97a:	6821      	ldr	r1, [r4, #0]
     97c:	4a11      	ldr	r2, [pc, #68]	@ (9c4 <PowerCC23X0_startHFXT+0xa0>)
     97e:	400a      	ands	r2, r1
     980:	6022      	str	r2, [r4, #0]
        HWREG(CKMD_BASE + CKMD_O_HFXTCTL) |= CKMD_HFXTCTL_EN;
     982:	6829      	ldr	r1, [r5, #0]
     984:	4301      	orrs	r1, r0
     986:	6029      	str	r1, [r5, #0]
    key = HwiP_disable();
     988:	f000 fbd4 	bl	1134 <HwiP_disable>
    constraintMask |= 1U << constraintId;
     98c:	490e      	ldr	r1, [pc, #56]	@ (9c8 <PowerCC23X0_startHFXT+0xa4>)
     98e:	680a      	ldr	r2, [r1, #0]
     990:	2302      	movs	r3, #2
     992:	4313      	orrs	r3, r2
     994:	600b      	str	r3, [r1, #0]
    constraintCounts[constraintId]++;
     996:	490d      	ldr	r1, [pc, #52]	@ (9cc <PowerCC23X0_startHFXT+0xa8>)
     998:	784a      	ldrb	r2, [r1, #1]
     99a:	1c52      	adds	r2, r2, #1
     99c:	704a      	strb	r2, [r1, #1]
    HwiP_restore(key);
     99e:	f000 fbbb 	bl	1118 <HwiP_restore>
    HWREG(CKMD_BASE + CKMD_O_ICLR)  = CKMD_ICLR_AMPSETTLED;
     9a2:	4620      	mov	r0, r4
     9a4:	384c      	subs	r0, #76	@ 0x4c
     9a6:	2101      	movs	r1, #1
     9a8:	03c9      	lsls	r1, r1, #15
     9aa:	6001      	str	r1, [r0, #0]
    HWREG(CKMD_BASE + CKMD_O_IMSET) = CKMD_IMSET_AMPSETTLED;
     9ac:	3c48      	subs	r4, #72	@ 0x48
     9ae:	6021      	str	r1, [r4, #0]
}
     9b0:	b001      	add	sp, #4
     9b2:	bdf0      	pop	{r4, r5, r6, r7, pc}
     9b4:	400010a0 	.word	0x400010a0
     9b8:	8000000d 	.word	0x8000000d
     9bc:	0f000094 	.word	0x0f000094
     9c0:	80030000 	.word	0x80030000
     9c4:	7ffeffff 	.word	0x7ffeffff
     9c8:	20000098 	.word	0x20000098
     9cc:	20000138 	.word	0x20000138

000009d0 <ClockP_stop>:
/*
 *  ======== ClockP_stop ========
 *  Remove and clear Clock object's queue elem from clockQ
 */
void ClockP_stop(ClockP_Handle handle)
{
     9d0:	b5f0      	push	{r4, r5, r6, r7, lr}
     9d2:	b081      	sub	sp, #4
     9d4:	4604      	mov	r4, r0
    ClockP_Obj *obj = (ClockP_Obj *)handle;
    uintptr_t key   = HwiP_disable();
     9d6:	f000 fbad 	bl	1134 <HwiP_disable>
     9da:	2100      	movs	r1, #0
    uint32_t nowDelta;
    uint32_t scheduledTick;
    uint32_t scheduledDelta;
    uint32_t newScheduledTickDelta;

    obj->active = false;
     9dc:	7521      	strb	r1, [r4, #20]

    if (ClockP_inWorkFunc)
     9de:	4a1f      	ldr	r2, [pc, #124]	@ (a5c <__STACK_SIZE+0x5c>)
     9e0:	7812      	ldrb	r2, [r2, #0]
     9e2:	2a01      	cmp	r2, #1
     9e4:	d103      	bne.n	9ee <ClockP_stop+0x1e>
    {
        /* If in the work function, let it handle scheduling the next tick */
        ClockP_startOrStopDuringWorkFunc = true;
     9e6:	4923      	ldr	r1, [pc, #140]	@ (a74 <__STACK_SIZE+0x74>)
     9e8:	2201      	movs	r2, #1
     9ea:	700a      	strb	r2, [r1, #0]
     9ec:	e032      	b.n	a54 <__STACK_SIZE+0x54>
    else
    {
        /* Re-compute next scheduled tick, if the current one is the timeout of
         * the stopped clock.
         */
        if (obj->currTimeout == ClockP_nextScheduledTick)
     9ee:	68e2      	ldr	r2, [r4, #12]
     9f0:	4b1b      	ldr	r3, [pc, #108]	@ (a60 <__STACK_SIZE+0x60>)
     9f2:	681b      	ldr	r3, [r3, #0]
     9f4:	429a      	cmp	r2, r3
     9f6:	d12d      	bne.n	a54 <__STACK_SIZE+0x54>
     9f8:	4f1a      	ldr	r7, [pc, #104]	@ (a64 <__STACK_SIZE+0x64>)
        {
            /* Get current tick count */
            nowTick = getClockPTick();
     9fa:	683d      	ldr	r5, [r7, #0]

            nowDelta       = nowTick - ClockP_ticks;
     9fc:	4c1a      	ldr	r4, [pc, #104]	@ (a68 <__STACK_SIZE+0x68>)
     9fe:	6823      	ldr	r3, [r4, #0]
     a00:	1aeb      	subs	r3, r5, r3
            scheduledTick  = ClockP_nextScheduledTick;
            scheduledDelta = scheduledTick - ClockP_ticks;
     a02:	6826      	ldr	r6, [r4, #0]
     a04:	1b92      	subs	r2, r2, r6
             * If "now" is after the next scheduled tick (i.e. the next
             * scheduled tick is in the past), then there will be a pending
             * interrupt, and the rescheduling will be done in
             * ClockP_workFuncDynamic(), instead of below.
             */
            if (nowDelta < scheduledDelta)
     a06:	4293      	cmp	r3, r2
     a08:	d224      	bcs.n	a54 <__STACK_SIZE+0x54>
     a0a:	43c9      	mvns	r1, r1
    for (elem = List_head(list); elem != NULL; elem = List_next(elem))
     a0c:	4a17      	ldr	r2, [pc, #92]	@ (a6c <__STACK_SIZE+0x6c>)
     a0e:	e000      	b.n	a12 <__STACK_SIZE+0x12>
     a10:	4619      	mov	r1, r3
     a12:	6812      	ldr	r2, [r2, #0]
     a14:	2a00      	cmp	r2, #0
     a16:	d00b      	beq.n	a30 <__STACK_SIZE+0x30>
        if (obj->active == true)
     a18:	7d13      	ldrb	r3, [r2, #20]
     a1a:	2b00      	cmp	r3, #0
     a1c:	d0f9      	beq.n	a12 <__STACK_SIZE+0x12>
            if (obj->active == true)
     a1e:	7d13      	ldrb	r3, [r2, #20]
     a20:	2b00      	cmp	r3, #0
     a22:	d0f6      	beq.n	a12 <__STACK_SIZE+0x12>
                delta = obj->currTimeout - thisTick;
     a24:	68d3      	ldr	r3, [r2, #12]
     a26:	1b5b      	subs	r3, r3, r5
                if (delta < distance)
     a28:	428b      	cmp	r3, r1
     a2a:	d3f1      	bcc.n	a10 <__STACK_SIZE+0x10>
     a2c:	460b      	mov	r3, r1
     a2e:	e7ef      	b.n	a10 <__STACK_SIZE+0x10>
     a30:	463c      	mov	r4, r7
     a32:	4606      	mov	r6, r0
     a34:	480e      	ldr	r0, [pc, #56]	@ (a70 <__STACK_SIZE+0x70>)
            {
                /* Determine distance to next tick */
                newScheduledTickDelta = ClockP_walkQueueDynamic(false, nowTick);

                /* Cap the distance to the maximum distance supported by the timer */
                if (newScheduledTickDelta > ClockP_PERIOD_MAX)
     a36:	4281      	cmp	r1, r0
     a38:	d300      	bcc.n	a3c <__STACK_SIZE+0x3c>
     a3a:	4601      	mov	r1, r0
                {
                    newScheduledTickDelta = ClockP_PERIOD_MAX;
                }

                /* Schedule the next tick */
                ClockP_scheduleNextTick(nowTick + newScheduledTickDelta);
     a3c:	194f      	adds	r7, r1, r5
     a3e:	2001      	movs	r0, #1
    HWREG(SYSTIM_BASE + SYSTIM_O_ARMCLR) = SYSTIM_ARMCLR_CH0_CLR;
     a40:	6460      	str	r0, [r4, #68]	@ 0x44
     a42:	2020      	movs	r0, #32
    HwiP_clearInterrupt(INT_CPUIRQ16);
     a44:	f000 fb8d 	bl	1162 <HwiP_clearInterrupt>
    HWREG(SYSTIM_BASE + SYSTIM_O_CH0CC) = newSystim;
     a48:	61e7      	str	r7, [r4, #28]
    ClockP_nextScheduledTick = absTick;
     a4a:	4805      	ldr	r0, [pc, #20]	@ (a60 <__STACK_SIZE+0x60>)
     a4c:	6007      	str	r7, [r0, #0]

                ClockP_ticks = nowTick;
     a4e:	4806      	ldr	r0, [pc, #24]	@ (a68 <__STACK_SIZE+0x68>)
     a50:	6005      	str	r5, [r0, #0]
     a52:	4630      	mov	r0, r6
            }
        }
    }

    HwiP_restore(key);
     a54:	f000 fb60 	bl	1118 <HwiP_restore>
}
     a58:	b001      	add	sp, #4
     a5a:	bdf0      	pop	{r4, r5, r6, r7, pc}
     a5c:	2000013d 	.word	0x2000013d
     a60:	20000140 	.word	0x20000140
     a64:	40022104 	.word	0x40022104
     a68:	20000144 	.word	0x20000144
     a6c:	20000128 	.word	0x20000128
     a70:	ffbfffff 	.word	0xffbfffff
     a74:	2000013e 	.word	0x2000013e

00000a78 <ClockP_startup>:
{
     a78:	b5f0      	push	{r4, r5, r6, r7, lr}
     a7a:	b081      	sub	sp, #4
    if (!ClockP_initialized)
     a7c:	481b      	ldr	r0, [pc, #108]	@ (aec <ClockP_startup+0x74>)
     a7e:	7800      	ldrb	r0, [r0, #0]
     a80:	2800      	cmp	r0, #0
     a82:	d130      	bne.n	ae6 <ClockP_startup+0x6e>
     a84:	481a      	ldr	r0, [pc, #104]	@ (af0 <ClockP_startup+0x78>)
        nowTick = getClockPTick();
     a86:	6805      	ldr	r5, [r0, #0]
     a88:	4e1a      	ldr	r6, [pc, #104]	@ (af4 <ClockP_startup+0x7c>)
     a8a:	2701      	movs	r7, #1
        HWREG(SYSTIM_BASE + SYSTIM_O_ICLR) = SYSTIM_ICLR_EV0_CLR;
     a8c:	6037      	str	r7, [r6, #0]
     a8e:	2400      	movs	r4, #0
        HWREG(SYSTIM_BASE + SYSTIM_O_CH0CFG) = 0;
     a90:	6084      	str	r4, [r0, #8]
        HWREG(SYSTIM_BASE + SYSTIM_O_EMU) = SYSTIM_EMU_HALT_STOP;
     a92:	60f7      	str	r7, [r6, #12]
        HwiP_setFunc(&clockHwi, ClockP_hwiCallback, (uintptr_t)NULL);
     a94:	4818      	ldr	r0, [pc, #96]	@ (af8 <ClockP_startup+0x80>)
     a96:	4919      	ldr	r1, [pc, #100]	@ (afc <ClockP_startup+0x84>)
     a98:	4622      	mov	r2, r4
     a9a:	f000 faf7 	bl	108c <HwiP_setFunc>
     a9e:	4818      	ldr	r0, [pc, #96]	@ (b00 <ClockP_startup+0x88>)
     aa0:	211b      	movs	r1, #27
        EVTSVTConfigureEvent(EVTSVT_SUB_CPUIRQ16, EVTSVT_PUB_SYSTIM0);
     aa2:	f000 fb41 	bl	1128 <EVTSVTConfigureEvent>
        HWREG(SYSTIM_BASE + SYSTIM_O_IMSET) = SYSTIM_IMSET_EV0_SET;
     aa6:	6077      	str	r7, [r6, #4]
        List_clearList(&ClockP_list);
     aa8:	4816      	ldr	r0, [pc, #88]	@ (b04 <ClockP_startup+0x8c>)
     aaa:	f000 fb11 	bl	10d0 <List_clearList>
        ClockP_ticks                     = nowTick;
     aae:	4816      	ldr	r0, [pc, #88]	@ (b08 <ClockP_startup+0x90>)
     ab0:	6005      	str	r5, [r0, #0]
     ab2:	4816      	ldr	r0, [pc, #88]	@ (b0c <ClockP_startup+0x94>)
        ClockP_nextScheduledTick         = (uint32_t)(nowTick + ClockP_PERIOD_MAX);
     ab4:	1828      	adds	r0, r5, r0
     ab6:	4916      	ldr	r1, [pc, #88]	@ (b10 <ClockP_startup+0x98>)
     ab8:	6008      	str	r0, [r1, #0]
     aba:	460d      	mov	r5, r1
        ClockP_inWorkFunc                = false;
     abc:	4815      	ldr	r0, [pc, #84]	@ (b14 <ClockP_startup+0x9c>)
     abe:	7004      	strb	r4, [r0, #0]
        ClockP_startOrStopDuringWorkFunc = false;
     ac0:	4815      	ldr	r0, [pc, #84]	@ (b18 <ClockP_startup+0xa0>)
     ac2:	7004      	strb	r4, [r0, #0]
        ClockP_initialized = true;
     ac4:	4809      	ldr	r0, [pc, #36]	@ (aec <ClockP_startup+0x74>)
     ac6:	7007      	strb	r7, [r0, #0]
        key = HwiP_disable();
     ac8:	f000 fb34 	bl	1134 <HwiP_disable>
     acc:	4604      	mov	r4, r0
        ClockP_scheduleNextTick(ClockP_nextScheduledTick);
     ace:	682e      	ldr	r6, [r5, #0]
     ad0:	4d07      	ldr	r5, [pc, #28]	@ (af0 <ClockP_startup+0x78>)
    HWREG(SYSTIM_BASE + SYSTIM_O_ARMCLR) = SYSTIM_ARMCLR_CH0_CLR;
     ad2:	646f      	str	r7, [r5, #68]	@ 0x44
     ad4:	2020      	movs	r0, #32
    HwiP_clearInterrupt(INT_CPUIRQ16);
     ad6:	f000 fb44 	bl	1162 <HwiP_clearInterrupt>
    HWREG(SYSTIM_BASE + SYSTIM_O_CH0CC) = newSystim;
     ada:	61ee      	str	r6, [r5, #28]
    ClockP_nextScheduledTick = absTick;
     adc:	480c      	ldr	r0, [pc, #48]	@ (b10 <ClockP_startup+0x98>)
     ade:	6006      	str	r6, [r0, #0]
        HwiP_restore(key);
     ae0:	4620      	mov	r0, r4
     ae2:	f000 fb19 	bl	1118 <HwiP_restore>
}
     ae6:	b001      	add	sp, #4
     ae8:	bdf0      	pop	{r4, r5, r6, r7, pc}
     aea:	46c0      	nop			@ (mov r8, r8)
     aec:	200000a4 	.word	0x200000a4
     af0:	40022104 	.word	0x40022104
     af4:	40022054 	.word	0x40022054
     af8:	2000010c 	.word	0x2000010c
     afc:	00000205 	.word	0x00000205
     b00:	00000444 	.word	0x00000444
     b04:	20000128 	.word	0x20000128
     b08:	20000144 	.word	0x20000144
     b0c:	ffbfffff 	.word	0xffbfffff
     b10:	20000140 	.word	0x20000140
     b14:	2000013d 	.word	0x2000013d
     b18:	2000013e 	.word	0x2000013e

00000b1c <memcpy>:
     b1c:	2a00      	cmp	r2, #0
     b1e:	d049      	beq.n	bb4 <_ret2_>
     b20:	4684      	mov	ip, r0
     b22:	078b      	lsls	r3, r1, #30
     b24:	d11c      	bne.n	b60 <_unaln>
     b26:	0783      	lsls	r3, r0, #30
     b28:	d122      	bne.n	b70 <_saln>

00000b2a <_aln>:
     b2a:	2a10      	cmp	r2, #16
     b2c:	d308      	bcc.n	b40 <_udr16>

00000b2e <_ovr16>:
     b2e:	b470      	push	{r4, r5, r6}
     b30:	3a10      	subs	r2, #16

00000b32 <_lp16>:
     b32:	c978      	ldmia	r1!, {r3, r4, r5, r6}
     b34:	c078      	stmia	r0!, {r3, r4, r5, r6}
     b36:	3a10      	subs	r2, #16
     b38:	d2fb      	bcs.n	b32 <_lp16>
     b3a:	bc70      	pop	{r4, r5, r6}
     b3c:	3210      	adds	r2, #16
     b3e:	d038      	beq.n	bb2 <_ret_>

00000b40 <_udr16>:
     b40:	2a04      	cmp	r2, #4
     b42:	d32c      	bcc.n	b9e <_off1>
     b44:	2a08      	cmp	r2, #8
     b46:	d305      	bcc.n	b54 <_c4>
     b48:	2a0c      	cmp	r2, #12
     b4a:	d301      	bcc.n	b50 <_c8>

00000b4c <_c12>:
     b4c:	c908      	ldmia	r1!, {r3}
     b4e:	c008      	stmia	r0!, {r3}

00000b50 <_c8>:
     b50:	c908      	ldmia	r1!, {r3}
     b52:	c008      	stmia	r0!, {r3}

00000b54 <_c4>:
     b54:	c908      	ldmia	r1!, {r3}
     b56:	c008      	stmia	r0!, {r3}

00000b58 <_oddsz>:
     b58:	0792      	lsls	r2, r2, #30
     b5a:	d02a      	beq.n	bb2 <_ret_>
     b5c:	0f92      	lsrs	r2, r2, #30
     b5e:	e022      	b.n	ba6 <_lp1>

00000b60 <_unaln>:
     b60:	780b      	ldrb	r3, [r1, #0]
     b62:	7003      	strb	r3, [r0, #0]
     b64:	1c49      	adds	r1, r1, #1
     b66:	1c40      	adds	r0, r0, #1
     b68:	1e52      	subs	r2, r2, #1
     b6a:	d022      	beq.n	bb2 <_ret_>
     b6c:	078b      	lsls	r3, r1, #30
     b6e:	d1f7      	bne.n	b60 <_unaln>

00000b70 <_saln>:
     b70:	07c3      	lsls	r3, r0, #31
     b72:	d114      	bne.n	b9e <_off1>
     b74:	0783      	lsls	r3, r0, #30
     b76:	d0d8      	beq.n	b2a <_aln>

00000b78 <_off2>:
     b78:	1f12      	subs	r2, r2, #4
     b7a:	d312      	bcc.n	ba2 <_oddb>

00000b7c <_cp4s>:
     b7c:	c908      	ldmia	r1!, {r3}
     b7e:	8003      	strh	r3, [r0, #0]
     b80:	0c1b      	lsrs	r3, r3, #16
     b82:	8043      	strh	r3, [r0, #2]
     b84:	1d00      	adds	r0, r0, #4
     b86:	1f12      	subs	r2, r2, #4
     b88:	d2f8      	bcs.n	b7c <_cp4s>
     b8a:	e00a      	b.n	ba2 <_oddb>

00000b8c <_cp4>:
     b8c:	c908      	ldmia	r1!, {r3}
     b8e:	7003      	strb	r3, [r0, #0]
     b90:	0a1b      	lsrs	r3, r3, #8
     b92:	7043      	strb	r3, [r0, #1]
     b94:	0a1b      	lsrs	r3, r3, #8
     b96:	7083      	strb	r3, [r0, #2]
     b98:	0a1b      	lsrs	r3, r3, #8
     b9a:	70c3      	strb	r3, [r0, #3]
     b9c:	1d00      	adds	r0, r0, #4

00000b9e <_off1>:
     b9e:	1f12      	subs	r2, r2, #4
     ba0:	d2f4      	bcs.n	b8c <_cp4>

00000ba2 <_oddb>:
     ba2:	1d12      	adds	r2, r2, #4
     ba4:	d005      	beq.n	bb2 <_ret_>

00000ba6 <_lp1>:
     ba6:	780b      	ldrb	r3, [r1, #0]
     ba8:	7003      	strb	r3, [r0, #0]
     baa:	1c49      	adds	r1, r1, #1
     bac:	1c40      	adds	r0, r0, #1
     bae:	1e52      	subs	r2, r2, #1
     bb0:	d1f9      	bne.n	ba6 <_lp1>

00000bb2 <_ret_>:
     bb2:	4660      	mov	r0, ip

00000bb4 <_ret2_>:
     bb4:	4770      	bx	lr

00000bb6 <__aeabi_idiv0>:
     bb6:	4770      	bx	lr

00000bb8 <ClockP_start>:
{
     bb8:	b5f0      	push	{r4, r5, r6, r7, lr}
     bba:	b081      	sub	sp, #4
     bbc:	4604      	mov	r4, r0
     bbe:	4d1b      	ldr	r5, [pc, #108]	@ (c2c <ClockP_start+0x74>)
    uintptr_t key   = HwiP_disable();
     bc0:	f000 fab8 	bl	1134 <HwiP_disable>
    if (ClockP_inWorkFunc == false)
     bc4:	491a      	ldr	r1, [pc, #104]	@ (c30 <ClockP_start+0x78>)
     bc6:	780a      	ldrb	r2, [r1, #0]
     bc8:	6829      	ldr	r1, [r5, #0]
     bca:	2a00      	cmp	r2, #0
     bcc:	d007      	beq.n	bde <ClockP_start+0x26>
        obj->currTimeout = nowTick + obj->timeout;
     bce:	68a2      	ldr	r2, [r4, #8]
     bd0:	1851      	adds	r1, r2, r1
     bd2:	60e1      	str	r1, [r4, #12]
     bd4:	2101      	movs	r1, #1
        obj->active      = true;
     bd6:	7521      	strb	r1, [r4, #20]
            ClockP_startOrStopDuringWorkFunc = true;
     bd8:	4a18      	ldr	r2, [pc, #96]	@ (c3c <ClockP_start+0x84>)
     bda:	7011      	strb	r1, [r2, #0]
     bdc:	e021      	b.n	c22 <ClockP_start+0x6a>
        nowDelta       = nowTick - ClockP_ticks;
     bde:	4b15      	ldr	r3, [pc, #84]	@ (c34 <ClockP_start+0x7c>)
     be0:	681a      	ldr	r2, [r3, #0]
     be2:	1a8f      	subs	r7, r1, r2
        scheduledTick  = ClockP_nextScheduledTick;
     be4:	4e14      	ldr	r6, [pc, #80]	@ (c38 <ClockP_start+0x80>)
     be6:	6832      	ldr	r2, [r6, #0]
        scheduledDelta = scheduledTick - ClockP_ticks;
     be8:	681b      	ldr	r3, [r3, #0]
     bea:	1ad3      	subs	r3, r2, r3
        if (nowDelta <= scheduledDelta)
     bec:	429f      	cmp	r7, r3
     bee:	d906      	bls.n	bfe <ClockP_start+0x46>
        nowTick = getClockPTick();
     bf0:	6829      	ldr	r1, [r5, #0]
        obj->currTimeout = nowTick + obj->timeout;
     bf2:	68a2      	ldr	r2, [r4, #8]
     bf4:	1851      	adds	r1, r2, r1
     bf6:	60e1      	str	r1, [r4, #12]
     bf8:	2101      	movs	r1, #1
        obj->active      = true;
     bfa:	7521      	strb	r1, [r4, #20]
     bfc:	e011      	b.n	c22 <ClockP_start+0x6a>
            obj->currTimeout = nowTick + obj->timeout;
     bfe:	68a7      	ldr	r7, [r4, #8]
     c00:	187b      	adds	r3, r7, r1
     c02:	60e3      	str	r3, [r4, #12]
     c04:	2301      	movs	r3, #1
            obj->active      = true;
     c06:	7523      	strb	r3, [r4, #20]
            remainingTicks = scheduledTick - nowTick;
     c08:	1a51      	subs	r1, r2, r1
            if (obj->timeout < remainingTicks)
     c0a:	428f      	cmp	r7, r1
     c0c:	d209      	bcs.n	c22 <ClockP_start+0x6a>
                ClockP_scheduleNextTick(obj->currTimeout);
     c0e:	68e7      	ldr	r7, [r4, #12]
    HWREG(SYSTIM_BASE + SYSTIM_O_ARMCLR) = SYSTIM_ARMCLR_CH0_CLR;
     c10:	646b      	str	r3, [r5, #68]	@ 0x44
     c12:	2120      	movs	r1, #32
     c14:	4604      	mov	r4, r0
    HwiP_clearInterrupt(INT_CPUIRQ16);
     c16:	4608      	mov	r0, r1
     c18:	f000 faa3 	bl	1162 <HwiP_clearInterrupt>
     c1c:	4620      	mov	r0, r4
    HWREG(SYSTIM_BASE + SYSTIM_O_CH0CC) = newSystim;
     c1e:	61ef      	str	r7, [r5, #28]
    ClockP_nextScheduledTick = absTick;
     c20:	6037      	str	r7, [r6, #0]
    HwiP_restore(key);
     c22:	f000 fa79 	bl	1118 <HwiP_restore>
}
     c26:	b001      	add	sp, #4
     c28:	bdf0      	pop	{r4, r5, r6, r7, pc}
     c2a:	46c0      	nop			@ (mov r8, r8)
     c2c:	40022104 	.word	0x40022104
     c30:	2000013d 	.word	0x2000013d
     c34:	20000144 	.word	0x20000144
     c38:	20000140 	.word	0x20000140
     c3c:	2000013e 	.word	0x2000013e

00000c40 <HwiP_construct>:

/*
 *  ======== HwiP_construct ========
 */
HwiP_Handle HwiP_construct(HwiP_Struct *handle, int interruptNum, HwiP_Fxn hwiFxn, HwiP_Params *params)
{
     c40:	b570      	push	{r4, r5, r6, lr}
     c42:	b084      	sub	sp, #16
     c44:	4604      	mov	r4, r0
     c46:	2000      	movs	r0, #0
    HwiP_Params defaultParams;
    HwiP_Obj *obj = (HwiP_Obj *)handle;

    if (handle != NULL)
     c48:	2c00      	cmp	r4, #0
     c4a:	d00c      	beq.n	c66 <HwiP_construct+0x26>
     c4c:	460d      	mov	r5, r1
    {
        if (params == NULL)
     c4e:	2b00      	cmp	r3, #0
     c50:	d00b      	beq.n	c6a <HwiP_construct+0x2a>
        {
            params = &defaultParams;
            HwiP_Params_init(&defaultParams);
        }

        if ((params->priority & 0xFF) == 0xFF)
     c52:	6859      	ldr	r1, [r3, #4]
     c54:	b2ce      	uxtb	r6, r1
     c56:	2eff      	cmp	r6, #255	@ 0xff
     c58:	d00e      	beq.n	c78 <HwiP_construct+0x38>
             * So level 3 is the lowest.
             */
            params->priority = INT_PRI_LEVEL2;
        }

        if (interruptNum != HwiP_swiPIntNum && params->priority == INT_PRI_LEVEL3)
     c5a:	4e15      	ldr	r6, [pc, #84]	@ (cb0 <HwiP_construct+0x70>)
     c5c:	6836      	ldr	r6, [r6, #0]
     c5e:	42ae      	cmp	r6, r5
     c60:	d00c      	beq.n	c7c <HwiP_construct+0x3c>
     c62:	29c0      	cmp	r1, #192	@ 0xc0
     c64:	d10a      	bne.n	c7c <HwiP_construct+0x3c>
                IntEnable((uint32_t)interruptNum);
            }
        }
    }

    return ((HwiP_Handle)handle);
     c66:	b004      	add	sp, #16
     c68:	bd70      	pop	{r4, r5, r6, pc}
     c6a:	2000      	movs	r0, #0
 */
void HwiP_Params_init(HwiP_Params *params)
{
    if (params != NULL)
    {
        params->arg       = 0;
     c6c:	9001      	str	r0, [sp, #4]
     c6e:	43c0      	mvns	r0, r0
        params->priority  = (~0);
     c70:	9002      	str	r0, [sp, #8]
     c72:	ab01      	add	r3, sp, #4
     c74:	2001      	movs	r0, #1
        params->enableInt = true;
     c76:	7218      	strb	r0, [r3, #8]
     c78:	2080      	movs	r0, #128	@ 0x80
            params->priority = INT_PRI_LEVEL2;
     c7a:	6058      	str	r0, [r3, #4]
            HwiP_dispatchTable[interruptNum] = obj;
     c7c:	00a8      	lsls	r0, r5, #2
     c7e:	490d      	ldr	r1, [pc, #52]	@ (cb4 <HwiP_construct+0x74>)
     c80:	500c      	str	r4, [r1, r0]
            obj->fxn                         = hwiFxn;
     c82:	6062      	str	r2, [r4, #4]
            obj->arg                         = params->arg;
     c84:	6818      	ldr	r0, [r3, #0]
     c86:	60a0      	str	r0, [r4, #8]
            obj->intNum                      = (uint32_t)interruptNum;
     c88:	6025      	str	r5, [r4, #0]
            IntRegister((uint32_t)interruptNum, HwiP_dispatch);
     c8a:	490b      	ldr	r1, [pc, #44]	@ (cb8 <HwiP_construct+0x78>)
     c8c:	4628      	mov	r0, r5
     c8e:	461e      	mov	r6, r3
     c90:	f000 f8e6 	bl	e60 <IntRegister>
            IntSetPriority((uint32_t)interruptNum, (uint8_t)params->priority);
     c94:	7931      	ldrb	r1, [r6, #4]
     c96:	4628      	mov	r0, r5
     c98:	f7ff fd8c 	bl	7b4 <IntSetPriority>
            if (params->enableInt)
     c9c:	7a30      	ldrb	r0, [r6, #8]
     c9e:	2800      	cmp	r0, #0
     ca0:	d002      	beq.n	ca8 <HwiP_construct+0x68>
                IntEnable((uint32_t)interruptNum);
     ca2:	4628      	mov	r0, r5
     ca4:	f000 f9a6 	bl	ff4 <IntEnable>
     ca8:	4620      	mov	r0, r4
    return ((HwiP_Handle)handle);
     caa:	b004      	add	sp, #16
     cac:	bd70      	pop	{r4, r5, r6, pc}
     cae:	46c0      	nop			@ (mov r8, r8)
     cb0:	2000008c 	.word	0x2000008c
     cb4:	20000000 	.word	0x20000000
     cb8:	00001045 	.word	0x00001045

00000cbc <__TI_decompress_lzss>:
     cbc:	b5f8      	push	{r3, r4, r5, r6, r7, lr}
     cbe:	1c45      	adds	r5, r0, #1
     cc0:	7800      	ldrb	r0, [r0, #0]
     cc2:	2300      	movs	r3, #0
     cc4:	2b08      	cmp	r3, #8
     cc6:	d032      	beq.n	d2e <__TI_decompress_lzss+0x72>
     cc8:	782f      	ldrb	r7, [r5, #0]
     cca:	07c2      	lsls	r2, r0, #31
     ccc:	d10c      	bne.n	ce8 <__TI_decompress_lzss+0x2c>
     cce:	786a      	ldrb	r2, [r5, #1]
     cd0:	240f      	movs	r4, #15
     cd2:	4014      	ands	r4, r2
     cd4:	1ce4      	adds	r4, r4, #3
     cd6:	2c12      	cmp	r4, #18
     cd8:	d10b      	bne.n	cf2 <__TI_decompress_lzss+0x36>
     cda:	2402      	movs	r4, #2
     cdc:	572e      	ldrsb	r6, [r5, r4]
     cde:	b2f4      	uxtb	r4, r6
     ce0:	2e00      	cmp	r6, #0
     ce2:	d408      	bmi.n	cf6 <__TI_decompress_lzss+0x3a>
     ce4:	1cee      	adds	r6, r5, #3
     ce6:	e00e      	b.n	d06 <__TI_decompress_lzss+0x4a>
     ce8:	1c6d      	adds	r5, r5, #1
     cea:	1c4a      	adds	r2, r1, #1
     cec:	700f      	strb	r7, [r1, #0]
     cee:	4611      	mov	r1, r2
     cf0:	e01a      	b.n	d28 <__TI_decompress_lzss+0x6c>
     cf2:	1cae      	adds	r6, r5, #2
     cf4:	e008      	b.n	d08 <__TI_decompress_lzss+0x4c>
     cf6:	1d2e      	adds	r6, r5, #4
     cf8:	78ed      	ldrb	r5, [r5, #3]
     cfa:	9500      	str	r5, [sp, #0]
     cfc:	257f      	movs	r5, #127	@ 0x7f
     cfe:	402c      	ands	r4, r5
     d00:	9d00      	ldr	r5, [sp, #0]
     d02:	01ed      	lsls	r5, r5, #7
     d04:	192c      	adds	r4, r5, r4
     d06:	3412      	adds	r4, #18
     d08:	013d      	lsls	r5, r7, #4
     d0a:	0912      	lsrs	r2, r2, #4
     d0c:	1952      	adds	r2, r2, r5
     d0e:	4d09      	ldr	r5, [pc, #36]	@ (d34 <__TI_decompress_lzss+0x78>)
     d10:	42aa      	cmp	r2, r5
     d12:	d00e      	beq.n	d32 <__TI_decompress_lzss+0x76>
     d14:	43d2      	mvns	r2, r2
     d16:	2c00      	cmp	r4, #0
     d18:	d005      	beq.n	d26 <__TI_decompress_lzss+0x6a>
     d1a:	5c8d      	ldrb	r5, [r1, r2]
     d1c:	1c4f      	adds	r7, r1, #1
     d1e:	700d      	strb	r5, [r1, #0]
     d20:	1e64      	subs	r4, r4, #1
     d22:	4639      	mov	r1, r7
     d24:	e7f7      	b.n	d16 <__TI_decompress_lzss+0x5a>
     d26:	4635      	mov	r5, r6
     d28:	0840      	lsrs	r0, r0, #1
     d2a:	1c5b      	adds	r3, r3, #1
     d2c:	e7ca      	b.n	cc4 <__TI_decompress_lzss+0x8>
     d2e:	4628      	mov	r0, r5
     d30:	e7c5      	b.n	cbe <__TI_decompress_lzss+0x2>
     d32:	bdf8      	pop	{r3, r4, r5, r6, r7, pc}
     d34:	00000fff 	.word	0x00000fff

00000d38 <PowerLPF3_selectLFXT>:
{
     d38:	b5b0      	push	{r4, r5, r7, lr}
     d3a:	4c14      	ldr	r4, [pc, #80]	@ (d8c <PowerLPF3_selectLFXT+0x54>)
     d3c:	2501      	movs	r5, #1
    HWREG(CKMD_BASE + CKMD_O_LFXTCTL) = CKMD_LFXTCTL_EN;
     d3e:	64e5      	str	r5, [r4, #76]	@ 0x4c
    PowerLPF3_lfclkQualFxn = PowerCC23X0_lfxtQual;
     d40:	4813      	ldr	r0, [pc, #76]	@ (d90 <PowerLPF3_selectLFXT+0x58>)
     d42:	4914      	ldr	r1, [pc, #80]	@ (d94 <PowerLPF3_selectLFXT+0x5c>)
     d44:	6001      	str	r1, [r0, #0]
    key = HwiP_disable();
     d46:	f000 f9f5 	bl	1134 <HwiP_disable>
    constraintMask |= 1U << constraintId;
     d4a:	4913      	ldr	r1, [pc, #76]	@ (d98 <PowerLPF3_selectLFXT+0x60>)
     d4c:	680a      	ldr	r2, [r1, #0]
     d4e:	2302      	movs	r3, #2
     d50:	4313      	orrs	r3, r2
     d52:	600b      	str	r3, [r1, #0]
    constraintCounts[constraintId]++;
     d54:	4911      	ldr	r1, [pc, #68]	@ (d9c <PowerLPF3_selectLFXT+0x64>)
     d56:	784a      	ldrb	r2, [r1, #1]
     d58:	1c52      	adds	r2, r2, #1
     d5a:	704a      	strb	r2, [r1, #1]
    HwiP_restore(key);
     d5c:	f000 f9dc 	bl	1118 <HwiP_restore>
    key = HwiP_disable();
     d60:	f000 f9e8 	bl	1134 <HwiP_disable>
    if ((HWREG(CKMD_BASE + CKMD_O_IMASK) & CKMD_IMASK_AMPSETTLED_M) != CKMD_IMASK_AMPSETTLED_M)
     d64:	6821      	ldr	r1, [r4, #0]
     d66:	0409      	lsls	r1, r1, #16
     d68:	d40d      	bmi.n	d86 <PowerLPF3_selectLFXT+0x4e>
     d6a:	0269      	lsls	r1, r5, #9
    HWREG(CKMD_BASE + CKMD_O_TDCTRIGSRC) = (uint32_t)tdcTrigSrc;
     d6c:	1c8a      	adds	r2, r1, #2
     d6e:	4b0c      	ldr	r3, [pc, #48]	@ (da0 <PowerLPF3_selectLFXT+0x68>)
     d70:	611a      	str	r2, [r3, #16]
    HWREG(CKMD_BASE + CKMD_O_TDCTRIGCNTCFG) = CKMD_TDCTRIGCNTCFG_EN;
     d72:	61dd      	str	r5, [r3, #28]
     d74:	4a0b      	ldr	r2, [pc, #44]	@ (da4 <PowerLPF3_selectLFXT+0x6c>)
    HWREG(CKMD_BASE + CKMD_O_TDCCLKSEL) = CKMD_TDCCLKSEL_REFCLK_CLKSVT;
     d76:	6015      	str	r5, [r2, #0]
    HWREG(CKMD_BASE + CKMD_O_TDCTRIGCNTLOAD) = 512;
     d78:	6199      	str	r1, [r3, #24]
     d7a:	2100      	movs	r1, #0
    HWREG(CKMD_BASE + CKMD_O_TDCCTL) = CKMD_TDCCTL_CMD_CLR_RESULT;
     d7c:	6019      	str	r1, [r3, #0]
     d7e:	0229      	lsls	r1, r5, #8
    HWREG(CKMD_BASE + CKMD_O_ICLR) = CKMD_ICLR_TDCDONE;
     d80:	6121      	str	r1, [r4, #16]
    HWREG(CKMD_BASE + CKMD_O_TDCCTL) = CKMD_TDCCTL_CMD_RUN_SYNC_START;
     d82:	601d      	str	r5, [r3, #0]
    HWREG(CKMD_BASE + CKMD_O_IMSET) = CKMD_IMASK_TDCDONE;
     d84:	6161      	str	r1, [r4, #20]
    HwiP_restore(key);
     d86:	f000 f9c7 	bl	1118 <HwiP_restore>
}
     d8a:	bdb0      	pop	{r4, r5, r7, pc}
     d8c:	40001044 	.word	0x40001044
     d90:	20000094 	.word	0x20000094
     d94:	0000086d 	.word	0x0000086d
     d98:	20000098 	.word	0x20000098
     d9c:	20000138 	.word	0x20000138
     da0:	40001200 	.word	0x40001200
     da4:	400010c4 	.word	0x400010c4

00000da8 <PowerCC23X0_hfxtAmpsettledTimeout>:
{
     da8:	b5f0      	push	{r4, r5, r6, r7, lr}
     daa:	b081      	sub	sp, #4
     dac:	4c14      	ldr	r4, [pc, #80]	@ (e00 <PowerCC23X0_hfxtAmpsettledTimeout+0x58>)
     dae:	270f      	movs	r7, #15
     db0:	067d      	lsls	r5, r7, #25
     db2:	2005      	movs	r0, #5
     db4:	0646      	lsls	r6, r0, #25
    uintptr_t key = HwiP_disable();
     db6:	f000 f9bd 	bl	1134 <HwiP_disable>
    if ((HWREG(CKMD_BASE + CKMD_O_AMPSTAT) & CKMD_AMPSTAT_STATE_M) == CKMD_AMPSTAT_STATE_RAMP0)
     dba:	6821      	ldr	r1, [r4, #0]
     dbc:	4029      	ands	r1, r5
     dbe:	42b1      	cmp	r1, r6
     dc0:	d11a      	bne.n	df8 <PowerCC23X0_hfxtAmpsettledTimeout+0x50>
    uint32_t tmp = HWREG(CKMD_BASE + CKMD_O_HFXTTARG) & ~CKMD_HFXTTARG_IREF_M;
     dc2:	6ae2      	ldr	r2, [r4, #44]	@ 0x2c
     dc4:	0339      	lsls	r1, r7, #12
     dc6:	438a      	bics	r2, r1
     dc8:	2101      	movs	r1, #1
     dca:	03cb      	lsls	r3, r1, #15
    tmp |= (iref << CKMD_HFXTTARG_IREF_S) & CKMD_HFXTTARG_IREF_M;
     dcc:	18d2      	adds	r2, r2, r3
    HWREG(CKMD_BASE + CKMD_O_HFXTTARG) = tmp;
     dce:	62e2      	str	r2, [r4, #44]	@ 0x2c
    HWREG(CKMD_BASE + CKMD_O_AMPADCCTL) = (CKMD_AMPADCCTL_SWOVR | CKMD_AMPADCCTL_SRCSEL_PEAK |
     dd0:	4622      	mov	r2, r4
     dd2:	3a50      	subs	r2, #80	@ 0x50
     dd4:	4b0b      	ldr	r3, [pc, #44]	@ (e04 <PowerCC23X0_hfxtAmpsettledTimeout+0x5c>)
     dd6:	6013      	str	r3, [r2, #0]
    while ((HWREG(CKMD_BASE + CKMD_O_AMPSTAT) & CKMD_AMPSTAT_STATE_M) == CKMD_AMPSTAT_STATE_RAMP0) {}
     dd8:	6823      	ldr	r3, [r4, #0]
     dda:	402b      	ands	r3, r5
     ddc:	42b3      	cmp	r3, r6
     dde:	d107      	bne.n	df0 <PowerCC23X0_hfxtAmpsettledTimeout+0x48>
     de0:	6823      	ldr	r3, [r4, #0]
     de2:	402b      	ands	r3, r5
     de4:	42b3      	cmp	r3, r6
     de6:	d103      	bne.n	df0 <PowerCC23X0_hfxtAmpsettledTimeout+0x48>
     de8:	6823      	ldr	r3, [r4, #0]
     dea:	402b      	ands	r3, r5
     dec:	42b3      	cmp	r3, r6
     dee:	d0f3      	beq.n	dd8 <PowerCC23X0_hfxtAmpsettledTimeout+0x30>
    HWREG(CKMD_BASE + CKMD_O_AMPADCCTL) &= ~CKMD_AMPADCCTL_SWOVR;
     df0:	6813      	ldr	r3, [r2, #0]
     df2:	07c9      	lsls	r1, r1, #31
     df4:	438b      	bics	r3, r1
     df6:	6013      	str	r3, [r2, #0]
    HwiP_restore(key);
     df8:	f000 f98e 	bl	1118 <HwiP_restore>
}
     dfc:	b001      	add	sp, #4
     dfe:	bdf0      	pop	{r4, r5, r6, r7, pc}
     e00:	400010f0 	.word	0x400010f0
     e04:	80010012 	.word	0x80010012

00000e08 <LRFDApplyClockDependencies>:
//
// Apply the currently set clock dependencies.
//
//*****************************************************************************
void LRFDApplyClockDependencies(void)
{
     e08:	4812      	ldr	r0, [pc, #72]	@ (e54 <LRFDApplyClockDependencies+0x4c>)
    // The combined clock dependencies for all dependency sets. It represents
    // the value to be written to the LRFDDBELL_O_CLKCTL register.
    uint16_t clkctl = 0;

    bool lrfdClocked = (HWREG(CLKCTL_BASE + CLKCTL_O_CLKCFG0) & CLKCTL_CLKCFG0_LRFD_M) == CLKCTL_CLKCFG0_LRFD_CLK_EN;
     e0a:	6802      	ldr	r2, [r0, #0]

    // Merge the clock dependencies for all sets
    for (int i = 0; i < LRFD_NUM_CLK_DEP; i++)
    {
        clkctl |= lrfdClockDependencySets[i];
     e0c:	4912      	ldr	r1, [pc, #72]	@ (e58 <LRFDApplyClockDependencies+0x50>)
     e0e:	880b      	ldrh	r3, [r1, #0]
     e10:	8849      	ldrh	r1, [r1, #2]
     e12:	4319      	orrs	r1, r3
    }

    if (lrfdClocked)
     e14:	0792      	lsls	r2, r2, #30
     e16:	d411      	bmi.n	e3c <LRFDApplyClockDependencies+0x34>
            CLKCTLDisableLrfdClock();
        }
    }
    else
    {
        if (clkctl != 0)
     e18:	2900      	cmp	r1, #0
     e1a:	d016      	beq.n	e4a <LRFDApplyClockDependencies+0x42>
     e1c:	2202      	movs	r2, #2
//
//*****************************************************************************
__STATIC_INLINE void CLKCTLEnableLrfdClock(void)
{
    // Enable LRFD module clock
    HWREG( CLKCTL_BASE + CLKCTL_O_CLKENSET0 ) = CLKCTL_CLKENSET0_LRFD;
     e1e:	6082      	str	r2, [r0, #8]

    // Wait for LRFD clock to be enabled. It is not expected that the LRFD clock
    // will ever be disabled, but this will add sufficient delay before
    // potentially using LRFD directly after this function.
    while ((HWREG(CLKCTL_BASE + CLKCTL_O_CLKCFG0) & CLKCTL_CLKCFG0_LRFD_M) != CLKCTL_CLKCFG0_LRFD_CLK_EN) {}
     e20:	6802      	ldr	r2, [r0, #0]
     e22:	0792      	lsls	r2, r2, #30
     e24:	d405      	bmi.n	e32 <LRFDApplyClockDependencies+0x2a>
     e26:	6802      	ldr	r2, [r0, #0]
     e28:	0792      	lsls	r2, r2, #30
     e2a:	d402      	bmi.n	e32 <LRFDApplyClockDependencies+0x2a>
     e2c:	6802      	ldr	r2, [r0, #0]
     e2e:	0792      	lsls	r2, r2, #30
     e30:	d5f6      	bpl.n	e20 <LRFDApplyClockDependencies+0x18>
     e32:	2001      	movs	r0, #1
            // BRIDGE bit should not be needed as hardware will automatically
            // enable the clock when needed. The bit should always be 0 in the
            // HW, and is thus cleared here. The BRIDGE bit can be set as a
            // dependency, making clkctl non-zero, to indicate the need for the
            // LRFD module clock to be enabled, but no internal LRFD clocks.
            HWREG(LRFDDBELL_BASE + LRFDDBELL_O_CLKCTL) = clkctl & ~LRFDDBELL_CLKCTL_BRIDGE_M;
     e34:	4381      	bics	r1, r0
     e36:	4809      	ldr	r0, [pc, #36]	@ (e5c <LRFDApplyClockDependencies+0x54>)
     e38:	6001      	str	r1, [r0, #0]
        }
    }
     e3a:	4770      	bx	lr
     e3c:	2201      	movs	r2, #1
        HWREG(LRFDDBELL_BASE + LRFDDBELL_O_CLKCTL) = clkctl & ~LRFDDBELL_CLKCTL_BRIDGE_M;
     e3e:	460b      	mov	r3, r1
     e40:	4393      	bics	r3, r2
     e42:	4a06      	ldr	r2, [pc, #24]	@ (e5c <LRFDApplyClockDependencies+0x54>)
     e44:	6013      	str	r3, [r2, #0]
        if (clkctl == 0)
     e46:	2900      	cmp	r1, #0
     e48:	d000      	beq.n	e4c <LRFDApplyClockDependencies+0x44>
     e4a:	4770      	bx	lr
     e4c:	2102      	movs	r1, #2
//! should not be used directly.
//
//*****************************************************************************
__STATIC_INLINE void CLKCTLDisableLrfdClock(void)
{
    HWREG( CLKCTL_BASE + CLKCTL_O_CLKENCLR0 ) = CLKCTL_CLKENCLR0_LRFD;
     e4e:	6141      	str	r1, [r0, #20]
     e50:	4770      	bx	lr
     e52:	46c0      	nop			@ (mov r8, r8)
     e54:	4002000c 	.word	0x4002000c
     e58:	2000014c 	.word	0x2000014c
     e5c:	40080004 	.word	0x40080004

00000e60 <IntRegister>:
{
     e60:	b5f0      	push	{r4, r5, r6, r7, lr}
     e62:	4b0f      	ldr	r3, [pc, #60]	@ (ea0 <IntRegister+0x40>)
    if (SCB->VTOR != (uint32_t)ramVectorTable)
     e64:	681c      	ldr	r4, [r3, #0]
     e66:	4a0f      	ldr	r2, [pc, #60]	@ (ea4 <IntRegister+0x44>)
     e68:	4294      	cmp	r4, r2
     e6a:	d016      	beq.n	e9a <IntRegister+0x3a>
        tmpVtor = SCB->VTOR;
     e6c:	681c      	ldr	r4, [r3, #0]
     e6e:	2500      	movs	r5, #0
            ramVectorTable[idx] = (void (*)(void))HWREG((idx * 4) + tmpVtor);
     e70:	1966      	adds	r6, r4, r5
     e72:	5967      	ldr	r7, [r4, r5]
     e74:	1953      	adds	r3, r2, r5
     e76:	5157      	str	r7, [r2, r5]
     e78:	6877      	ldr	r7, [r6, #4]
     e7a:	605f      	str	r7, [r3, #4]
     e7c:	68b7      	ldr	r7, [r6, #8]
     e7e:	609f      	str	r7, [r3, #8]
     e80:	68f7      	ldr	r7, [r6, #12]
     e82:	60df      	str	r7, [r3, #12]
     e84:	6937      	ldr	r7, [r6, #16]
     e86:	611f      	str	r7, [r3, #16]
     e88:	6977      	ldr	r7, [r6, #20]
     e8a:	615f      	str	r7, [r3, #20]
     e8c:	69b6      	ldr	r6, [r6, #24]
     e8e:	619e      	str	r6, [r3, #24]
        for (idx = 0; idx < NUM_INTERRUPTS; idx++)
     e90:	351c      	adds	r5, #28
     e92:	2d8c      	cmp	r5, #140	@ 0x8c
     e94:	d1ec      	bne.n	e70 <IntRegister+0x10>
        SCB->VTOR = (uint32_t)ramVectorTable;
     e96:	4b02      	ldr	r3, [pc, #8]	@ (ea0 <IntRegister+0x40>)
     e98:	601a      	str	r2, [r3, #0]
    ramVectorTable[intNum] = handler;
     e9a:	0080      	lsls	r0, r0, #2
     e9c:	5011      	str	r1, [r2, r0]
}
     e9e:	bdf0      	pop	{r4, r5, r6, r7, pc}
     ea0:	e000ed08 	.word	0xe000ed08
     ea4:	20000200 	.word	0x20000200

00000ea8 <__aeabi_uidiv>:
     ea8:	b51c      	push	{r2, r3, r4, lr}
     eaa:	000a      	movs	r2, r1
     eac:	d017      	beq.n	ede <__aeabi_uidiv+0x36>
     eae:	2300      	movs	r3, #0
     eb0:	2401      	movs	r4, #1
     eb2:	07e4      	lsls	r4, r4, #31
     eb4:	42a0      	cmp	r0, r4
     eb6:	d200      	bcs.n	eba <__aeabi_uidiv+0x12>
     eb8:	0004      	movs	r4, r0
     eba:	4294      	cmp	r4, r2
     ebc:	d901      	bls.n	ec2 <__aeabi_uidiv+0x1a>
     ebe:	0052      	lsls	r2, r2, #1
     ec0:	e7fb      	b.n	eba <__aeabi_uidiv+0x12>
     ec2:	4290      	cmp	r0, r2
     ec4:	415b      	adcs	r3, r3
     ec6:	4290      	cmp	r0, r2
     ec8:	d300      	bcc.n	ecc <__aeabi_uidiv+0x24>
     eca:	1a80      	subs	r0, r0, r2
     ecc:	4291      	cmp	r1, r2
     ece:	d201      	bcs.n	ed4 <__aeabi_uidiv+0x2c>
     ed0:	0852      	lsrs	r2, r2, #1
     ed2:	e7f6      	b.n	ec2 <__aeabi_uidiv+0x1a>
     ed4:	0019      	movs	r1, r3
     ed6:	0002      	movs	r2, r0
     ed8:	0008      	movs	r0, r1
     eda:	0011      	movs	r1, r2
     edc:	bd1c      	pop	{r2, r3, r4, pc}
     ede:	0001      	movs	r1, r0
     ee0:	2000      	movs	r0, #0
     ee2:	f7ff fe68 	bl	bb6 <__aeabi_idiv0>
     ee6:	bd1c      	pop	{r2, r3, r4, pc}

00000ee8 <main>:
{

    // infra::ByteRange secondStageMemory(&_second_stage_bootloader_start, &_second_stage_bootloader_end);
    infra::ConstByteRange applicationMemory(&_application_start, &_application_end);

    Power_init();
     ee8:	f7ff fa9a 	bl	420 <Power_init>

    PowerLPF3_selectLFXT();
     eec:	f7ff ff24 	bl	d38 <PowerLPF3_selectLFXT>
     ef0:	480a      	ldr	r0, [pc, #40]	@ (f1c <main+0x34>)
//*****************************************************************************
__STATIC_INLINE void PMCTLSetVoltageRegulator(uint32_t regulator)
{
    // Write to VDDR regulator register while preserving other configuration
    // fields
    uint32_t tmp                        = HWREG(PMCTL_BASE + PMCTL_O_VDDRCTL) & ~PMCTL_VDDRCTL_SELECT_M;
     ef2:	6801      	ldr	r1, [r0, #0]
     ef4:	2201      	movs	r2, #1
    HWREG(PMCTL_BASE + PMCTL_O_VDDRCTL) = tmp | regulator;
     ef6:	430a      	orrs	r2, r1
     ef8:	6002      	str	r2, [r0, #0]
    PMCTLSetVoltageRegulator(PMCTL_VOLTAGE_REGULATOR_DCDC);

    while (wait)
     efa:	4809      	ldr	r0, [pc, #36]	@ (f20 <main+0x38>)
     efc:	7801      	ldrb	r1, [r0, #0]
     efe:	2900      	cmp	r1, #0
     f00:	d009      	beq.n	f16 <main+0x2e>
    {
        __asm("bkpt ");
     f02:	be00      	bkpt	0x0000
    while (wait)
     f04:	7801      	ldrb	r1, [r0, #0]
     f06:	2900      	cmp	r1, #0
     f08:	d005      	beq.n	f16 <main+0x2e>
        __asm("bkpt ");
     f0a:	be00      	bkpt	0x0000
    while (wait)
     f0c:	7801      	ldrb	r1, [r0, #0]
     f0e:	2900      	cmp	r1, #0
     f10:	d001      	beq.n	f16 <main+0x2e>
        __asm("bkpt ");
     f12:	be00      	bkpt	0x0000
     f14:	e7f2      	b.n	efc <main+0x14>
    }

    Jump(reinterpret_cast<uint32_t>(applicationMemory.begin()));
     f16:	4803      	ldr	r0, [pc, #12]	@ (f24 <main+0x3c>)
     f18:	f000 f91e 	bl	1158 <_ZN12_GLOBAL__N_14JumpEj>
     f1c:	40000014 	.word	0x40000014
     f20:	200000a8 	.word	0x200000a8
     f24:	00008000 	.word	0x00008000

00000f28 <__TI_auto_init_nobinit_nopinit>:
     f28:	b570      	push	{r4, r5, r6, lr}
     f2a:	480a      	ldr	r0, [pc, #40]	@ (f54 <__TI_auto_init_nobinit_nopinit+0x2c>)
     f2c:	4c0a      	ldr	r4, [pc, #40]	@ (f58 <__TI_auto_init_nobinit_nopinit+0x30>)
     f2e:	4284      	cmp	r4, r0
     f30:	d00c      	beq.n	f4c <__TI_auto_init_nobinit_nopinit+0x24>
     f32:	4d0a      	ldr	r5, [pc, #40]	@ (f5c <__TI_auto_init_nobinit_nopinit+0x34>)
     f34:	4e0a      	ldr	r6, [pc, #40]	@ (f60 <__TI_auto_init_nobinit_nopinit+0x38>)
     f36:	42b5      	cmp	r5, r6
     f38:	d008      	beq.n	f4c <__TI_auto_init_nobinit_nopinit+0x24>
     f3a:	682a      	ldr	r2, [r5, #0]
     f3c:	6869      	ldr	r1, [r5, #4]
     f3e:	1c50      	adds	r0, r2, #1
     f40:	7812      	ldrb	r2, [r2, #0]
     f42:	0092      	lsls	r2, r2, #2
     f44:	58a2      	ldr	r2, [r4, r2]
     f46:	4790      	blx	r2
     f48:	3508      	adds	r5, #8
     f4a:	e7f4      	b.n	f36 <__TI_auto_init_nobinit_nopinit+0xe>
     f4c:	bf00      	nop
     f4e:	bf00      	nop
     f50:	bd70      	pop	{r4, r5, r6, pc}
     f52:	46c0      	nop			@ (mov r8, r8)
     f54:	000011d0 	.word	0x000011d0
     f58:	000011c4 	.word	0x000011c4
     f5c:	000011d8 	.word	0x000011d8
     f60:	000011e8 	.word	0x000011e8

00000f64 <IntClearPend>:
{
    // Check the arguments.
    ASSERT(intNum < NUM_INTERRUPTS);

    // Determine the interrupt to unpend.
    if (intNum == INT_PENDSV)
     f64:	280f      	cmp	r0, #15
     f66:	d006      	beq.n	f76 <IntClearPend+0x12>
     f68:	280e      	cmp	r0, #14
     f6a:	d10b      	bne.n	f84 <IntClearPend+0x20>
     f6c:	4809      	ldr	r0, [pc, #36]	@ (f94 <IntClearPend+0x30>)
    {
        // Unpend the PendSV interrupt.
        SCB->ICSR |= SCB_ICSR_PENDSVCLR_Msk;
     f6e:	6801      	ldr	r1, [r0, #0]
     f70:	2201      	movs	r2, #1
     f72:	06d2      	lsls	r2, r2, #27
     f74:	e003      	b.n	f7e <IntClearPend+0x1a>
     f76:	4807      	ldr	r0, [pc, #28]	@ (f94 <IntClearPend+0x30>)
    }
    else if (intNum == INT_SYSTICK)
    {
        // Unpend the SysTick interrupt.
        SCB->ICSR |= SCB_ICSR_PENDSTCLR_Msk;
     f78:	6801      	ldr	r1, [r0, #0]
     f7a:	2201      	movs	r2, #1
     f7c:	0652      	lsls	r2, r2, #25
     f7e:	430a      	orrs	r2, r1
     f80:	6002      	str	r2, [r0, #0]
    else if ((intNum >= 16) && (intNum <= 47))
    {
        // Unpend the general interrupt.
        NVIC->ICPR[0] = 1 << (intNum - 16);
    }
}
     f82:	4770      	bx	lr
    else if ((intNum >= 16) && (intNum <= 47))
     f84:	3810      	subs	r0, #16
     f86:	281f      	cmp	r0, #31
     f88:	d803      	bhi.n	f92 <IntClearPend+0x2e>
     f8a:	2101      	movs	r1, #1
        NVIC->ICPR[0] = 1 << (intNum - 16);
     f8c:	4081      	lsls	r1, r0
     f8e:	4802      	ldr	r0, [pc, #8]	@ (f98 <IntClearPend+0x34>)
     f90:	6001      	str	r1, [r0, #0]
}
     f92:	4770      	bx	lr
     f94:	e000ed04 	.word	0xe000ed04
     f98:	e000e280 	.word	0xe000e280

00000f9c <PowerLPF3_isLfincFilterAllowingStandby>:

/*
 *  ======== PowerLPF3_isLfincFilterAllowingStandby ========
 */
bool PowerLPF3_isLfincFilterAllowingStandby(void)
{
     f9c:	4808      	ldr	r0, [pc, #32]	@ (fc0 <PowerLPF3_isLfincFilterAllowingStandby+0x24>)
     * wait until the next LFTICK after HFXTGOOD is set before going to sleep.
     * This is achieved by checking against LFTICK before entering standby,
     * which is cleared once AMPSETTLED is set (which occurs after HFXTGOOD is
     * set).
     */
    if ((HWREG(CKMD_BASE + CKMD_O_LFCLKSEL) & CKMD_LFCLKSEL_MAIN_M) == CKMD_LFCLKSEL_MAIN_LFOSC)
     f9e:	6f81      	ldr	r1, [r0, #120]	@ 0x78
     fa0:	2203      	movs	r2, #3
     fa2:	400a      	ands	r2, r1
     fa4:	2a01      	cmp	r2, #1
     fa6:	d109      	bne.n	fbc <PowerLPF3_isLfincFilterAllowingStandby+0x20>
     fa8:	4906      	ldr	r1, [pc, #24]	@ (fc4 <PowerLPF3_isLfincFilterAllowingStandby+0x28>)
    {
        fltSettled = ((HWREG(CKMD_BASE + CKMD_O_LFCLKSTAT) & CKMD_LFCLKSTAT_FLTSETTLED_M) == CKMD_LFCLKSTAT_FLTSETTLED);
     faa:	6809      	ldr	r1, [r1, #0]
     fac:	0e49      	lsrs	r1, r1, #25
        lfTick     = ((HWREG(CKMD_BASE + CKMD_O_RIS) & CKMD_RIS_LFTICK_M) == CKMD_RIS_LFTICK);
     fae:	6800      	ldr	r0, [r0, #0]
     fb0:	2201      	movs	r2, #1
     fb2:	0452      	lsls	r2, r2, #17
     fb4:	4002      	ands	r2, r0
     fb6:	0c50      	lsrs	r0, r2, #17
        result     = fltSettled && lfTick;
     fb8:	4008      	ands	r0, r1
    }

    return result;
     fba:	4770      	bx	lr
     fbc:	2001      	movs	r0, #1
     fbe:	4770      	bx	lr
     fc0:	40001048 	.word	0x40001048
     fc4:	400010e0 	.word	0x400010e0

00000fc8 <SetupTrimDevice>:
#include "../inc/hw_ckmd.h"
#include "../inc/hw_fcfg.h"
#include "setup.h"

void SetupTrimDevice(void)
{
     fc8:	4806      	ldr	r0, [pc, #24]	@ (fe4 <SetupTrimDevice+0x1c>)
    uint8_t trimState;

    // Read out the layout revision number
    if (fcfg->appTrims.revision >= 4)
     fca:	7841      	ldrb	r1, [r0, #1]
     fcc:	2903      	cmp	r1, #3
     fce:	d800      	bhi.n	fd2 <SetupTrimDevice+0xa>
     fd0:	3080      	adds	r0, #128	@ 0x80
     fd2:	7800      	ldrb	r0, [r0, #0]
        // Hard coded address for fcfg->appTrimsExt.cc23x0r5.ateFtRev.trimState
        // to be independent of fcfg layout revision
        trimState = HWREGB(0x4E0003AF);
    }

    if (trimState > 0xFC)
     fd4:	28fd      	cmp	r0, #253	@ 0xfd
     fd6:	d304      	bcc.n	fe2 <SetupTrimDevice+0x1a>
     fd8:	4803      	ldr	r0, [pc, #12]	@ (fe8 <SetupTrimDevice+0x20>)
     fda:	4904      	ldr	r1, [pc, #16]	@ (fec <SetupTrimDevice+0x24>)
    {
        // Override HFXT trims on state D and earlier devices. Without this
        // override, HFXT startup will alternate between 20us and 1.5ms.
        HWREG(CKMD_BASE + CKMD_O_HFXTINIT) = (0x23 << CKMD_HFXTINIT_Q1CAP_S) | (0x23 << CKMD_HFXTINIT_Q2CAP_S) |
     fdc:	6001      	str	r1, [r0, #0]
     fde:	4904      	ldr	r1, [pc, #16]	@ (ff0 <SetupTrimDevice+0x28>)
                                             (0x8 << CKMD_HFXTINIT_IREF_S) | (0x12 << CKMD_HFXTINIT_AMPTHR_S) |
                                             (0x7F << CKMD_HFXTINIT_IDAC_S);

        HWREG(CKMD_BASE + CKMD_O_HFXTTARG) = (0x23 << CKMD_HFXTTARG_Q1CAP_S) | (0x23 << CKMD_HFXTTARG_Q2CAP_S) |
     fe0:	6041      	str	r1, [r0, #4]
                                             (0x3 << CKMD_HFXTTARG_IREF_S) | (0x12 << CKMD_HFXTTARG_AMPTHR_S) |
                                             (0x7F << CKMD_HFXTTARG_IDAC_S) | (0x1 << CKMD_HFXTTARG_AMPHYST_S);
    }
}
     fe2:	4770      	bx	lr
     fe4:	4e00032f 	.word	0x4e00032f
     fe8:	40001118 	.word	0x40001118
     fec:	097f88e3 	.word	0x097f88e3
     ff0:	497f38e3 	.word	0x497f38e3

00000ff4 <IntEnable>:
    if (intNum == INT_SYSTICK)
     ff4:	280f      	cmp	r0, #15
     ff6:	d105      	bne.n	1004 <IntEnable+0x10>
     ff8:	4807      	ldr	r0, [pc, #28]	@ (1018 <IntEnable+0x24>)
        SysTick->CTRL |= SysTick_CTRL_TICKINT_Msk;
     ffa:	6801      	ldr	r1, [r0, #0]
     ffc:	2202      	movs	r2, #2
     ffe:	430a      	orrs	r2, r1
    1000:	6002      	str	r2, [r0, #0]
}
    1002:	4770      	bx	lr
    else if ((intNum >= 16) && (intNum <= 47))
    1004:	3810      	subs	r0, #16
    1006:	281f      	cmp	r0, #31
    1008:	d803      	bhi.n	1012 <IntEnable+0x1e>
    100a:	2101      	movs	r1, #1
        NVIC->ISER[0] = 1 << (intNum - 16);
    100c:	4081      	lsls	r1, r0
    100e:	4801      	ldr	r0, [pc, #4]	@ (1014 <IntEnable+0x20>)
    1010:	6001      	str	r1, [r0, #0]
}
    1012:	4770      	bx	lr
    1014:	e000e100 	.word	0xe000e100
    1018:	e000e010 	.word	0xe000e010

0000101c <_c_int00_noargs>:
    101c:	4808      	ldr	r0, [pc, #32]	@ (1040 <_c_int00_noargs+0x24>)
    101e:	f380 8808 	msr	MSP, r0
    1022:	bf00      	nop
    1024:	bf00      	nop
    1026:	f000 f8b3 	bl	1190 <_system_pre_init>
    102a:	2800      	cmp	r0, #0
    102c:	d001      	beq.n	1032 <_c_int00_noargs+0x16>
    102e:	f7ff ff7b 	bl	f28 <__TI_auto_init_nobinit_nopinit>
    1032:	2000      	movs	r0, #0
    1034:	f7ff ff58 	bl	ee8 <main>
    1038:	2001      	movs	r0, #1
    103a:	f000 f8a2 	bl	1182 <abort>
    103e:	46c0      	nop			@ (mov r8, r8)
    1040:	20010000 	.word	0x20010000

00001044 <HwiP_dispatch>:
{
    1044:	b580      	push	{r7, lr}
    1046:	4806      	ldr	r0, [pc, #24]	@ (1060 <HwiP_dispatch+0x1c>)
    uint32_t intNum = (SCB->ICSR & 0x000000ff);
    1048:	6800      	ldr	r0, [r0, #0]
    104a:	b2c0      	uxtb	r0, r0
    HwiP_Obj *obj   = HwiP_dispatchTable[intNum];
    104c:	0080      	lsls	r0, r0, #2
    104e:	4905      	ldr	r1, [pc, #20]	@ (1064 <HwiP_dispatch+0x20>)
    1050:	5808      	ldr	r0, [r1, r0]
    if (obj)
    1052:	2800      	cmp	r0, #0
    1054:	d002      	beq.n	105c <HwiP_dispatch+0x18>
        (obj->fxn)(obj->arg);
    1056:	6841      	ldr	r1, [r0, #4]
    1058:	6880      	ldr	r0, [r0, #8]
    105a:	4788      	blx	r1
}
    105c:	bd80      	pop	{r7, pc}
    105e:	46c0      	nop			@ (mov r8, r8)
    1060:	e000ed04 	.word	0xe000ed04
    1064:	20000000 	.word	0x20000000

00001068 <List_put>:

/*
 *  ======== List_put ========
 */
void List_put(List_List *list, List_Elem *elem)
{
    1068:	b5b0      	push	{r4, r5, r7, lr}
    106a:	460c      	mov	r4, r1
    106c:	4605      	mov	r5, r0
    uintptr_t key;

    key = HwiP_disable();
    106e:	f000 f861 	bl	1134 <HwiP_disable>
    1072:	2100      	movs	r1, #0

    elem->next = NULL;
    1074:	6021      	str	r1, [r4, #0]
    elem->prev = list->tail;
    1076:	6869      	ldr	r1, [r5, #4]
    1078:	6061      	str	r1, [r4, #4]
    107a:	2900      	cmp	r1, #0
    107c:	462a      	mov	r2, r5
    107e:	d000      	beq.n	1082 <List_put+0x1a>
    1080:	460a      	mov	r2, r1
    1082:	6014      	str	r4, [r2, #0]
    else
    {
        list->head = elem;
    }

    list->tail = elem;
    1084:	606c      	str	r4, [r5, #4]

    HwiP_restore(key);
    1086:	f000 f847 	bl	1118 <HwiP_restore>
}
    108a:	bdb0      	pop	{r4, r5, r7, pc}

0000108c <HwiP_setFunc>:
 */
__STATIC_FORCEINLINE uint32_t __get_PRIMASK(void)
{
  uint32_t result;

  __ASM volatile ("MRS %0, primask" : "=r" (result) );
    108c:	f3ef 8310 	mrs	r3, PRIMASK
  __ASM volatile ("cpsid i" : : : "memory");
    1090:	b672      	cpsid	i
{
    HwiP_Obj *obj = (HwiP_Obj *)hwiP;

    uintptr_t key = HwiP_disable();

    obj->fxn = fxn;
    1092:	6041      	str	r1, [r0, #4]
    obj->arg = arg;
    1094:	6082      	str	r2, [r0, #8]
    if (!key)
    1096:	2b00      	cmp	r3, #0
    1098:	d000      	beq.n	109c <HwiP_setFunc+0x10>

    HwiP_restore(key);
}
    109a:	4770      	bx	lr
  __ASM volatile ("MRS %0, primask" : "=r" (result) );
    109c:	f3ef 8010 	mrs	r0, PRIMASK
  __ASM volatile ("cpsie i" : : : "memory");
    10a0:	b662      	cpsie	i
    10a2:	4770      	bx	lr

000010a4 <ClockP_setFunc>:

/*
 *  ======== ClockP_setFunc ========
 */
void ClockP_setFunc(ClockP_Handle handle, ClockP_Fxn clockFxn, uintptr_t arg)
{
    10a4:	b570      	push	{r4, r5, r6, lr}
    10a6:	4614      	mov	r4, r2
    10a8:	460d      	mov	r5, r1
    10aa:	4606      	mov	r6, r0
    ClockP_Obj *obj = (ClockP_Obj *)handle;

    uintptr_t key = HwiP_disable();
    10ac:	f000 f842 	bl	1134 <HwiP_disable>

    obj->fxn = clockFxn;
    10b0:	61b5      	str	r5, [r6, #24]
    obj->arg = arg;
    10b2:	61f4      	str	r4, [r6, #28]

    HwiP_restore(key);
    10b4:	f000 f830 	bl	1118 <HwiP_restore>
}
    10b8:	bd70      	pop	{r4, r5, r6, pc}

000010ba <__TI_zero_init_nomemset>:
    10ba:	2203      	movs	r2, #3
    10bc:	5880      	ldr	r0, [r0, r2]
    10be:	2800      	cmp	r0, #0
    10c0:	d005      	beq.n	10ce <__TI_zero_init_nomemset+0x14>
    10c2:	1e40      	subs	r0, r0, #1
    10c4:	1c4a      	adds	r2, r1, #1
    10c6:	2300      	movs	r3, #0
    10c8:	700b      	strb	r3, [r1, #0]
    10ca:	4611      	mov	r1, r2
    10cc:	e7f7      	b.n	10be <__TI_zero_init_nomemset+0x4>
    10ce:	4770      	bx	lr

000010d0 <List_clearList>:
{
    10d0:	b510      	push	{r4, lr}
    10d2:	4604      	mov	r4, r0
    key = HwiP_disable();
    10d4:	f000 f82e 	bl	1134 <HwiP_disable>
    10d8:	2100      	movs	r1, #0
    list->head = list->tail = NULL;
    10da:	6021      	str	r1, [r4, #0]
    10dc:	6061      	str	r1, [r4, #4]
    HwiP_restore(key);
    10de:	f000 f81b 	bl	1118 <HwiP_restore>
}
    10e2:	bd10      	pop	{r4, pc}

000010e4 <__TI_decompress_none>:
    10e4:	b580      	push	{r7, lr}
    10e6:	460b      	mov	r3, r1
    10e8:	2103      	movs	r1, #3
    10ea:	5842      	ldr	r2, [r0, r1]
    10ec:	1dc1      	adds	r1, r0, #7
    10ee:	4618      	mov	r0, r3
    10f0:	f000 f840 	bl	1174 <__aeabi_memcpy>
    10f4:	bd80      	pop	{r7, pc}

000010f6 <faultISR>:
static void faultISR(void)
{
    //
    // Enter an infinite loop.
    //
    while (1) {}
    10f6:	e7fe      	b.n	10f6 <faultISR>

000010f8 <PowerCC23X0_doWFI>:
    return (uint_fast32_t)constraintMask;
    10f8:	4802      	ldr	r0, [pc, #8]	@ (1104 <PowerCC23X0_doWFI+0xc>)
    10fa:	6800      	ldr	r0, [r0, #0]
    if (idleAllowed)
    10fc:	0740      	lsls	r0, r0, #29
    10fe:	d400      	bmi.n	1102 <PowerCC23X0_doWFI+0xa>
        __WFI();
    1100:	bf30      	wfi
}
    1102:	4770      	bx	lr
    1104:	20000098 	.word	0x20000098

00001108 <resetISR>:
 */
__STATIC_FORCEINLINE uint32_t __get_PRIMASK(void)
{
  uint32_t result;

  __ASM volatile ("MRS %0, primask" : "=r" (result) );
    1108:	f3ef 8010 	mrs	r0, PRIMASK
  __ASM volatile ("cpsid i" : : : "memory");
    110c:	b672      	cpsid	i
    SetupTrimDevice();
    110e:	f7ff ff5b 	bl	fc8 <SetupTrimDevice>
    __asm(" .global _c_int00\n"
    1112:	f7ff ff83 	bl	101c <_c_int00_noargs>
    while (1) {}
    1116:	e7fe      	b.n	1116 <resetISR+0xe>

00001118 <HwiP_restore>:
    if (!key)
    1118:	2800      	cmp	r0, #0
    111a:	d000      	beq.n	111e <HwiP_restore+0x6>
}
    111c:	4770      	bx	lr
  __ASM volatile ("MRS %0, primask" : "=r" (result) );
    111e:	f3ef 8010 	mrs	r0, PRIMASK
  __ASM volatile ("cpsie i" : : : "memory");
    1122:	b662      	cpsie	i
    1124:	4770      	bx	lr

00001126 <intDefaultHandler>:
static void intDefaultHandler(void)
{
    //
    // Enter an infinite loop.
    //
    while (1) {}
    1126:	e7fe      	b.n	1126 <intDefaultHandler>

00001128 <EVTSVTConfigureEvent>:
//
// Configure event publisher to be input to subscriber
//
//*****************************************************************************
void EVTSVTConfigureEvent(uint32_t subscriber, uint32_t pubId)
{
    1128:	4a01      	ldr	r2, [pc, #4]	@ (1130 <EVTSVTConfigureEvent+0x8>)
    ASSERT((subscriber >= EVTSVT_SUB_MIN_VAL) && (subscriber <= EVTSVT_SUB_MAX_VAL));
    ASSERT(pubId <= EVTSVT_PUBID_MAX_VAL);

    HWREG(EVTSVT_BASE + subscriber) = pubId;
    112a:	5081      	str	r1, [r0, r2]
}
    112c:	4770      	bx	lr
    112e:	46c0      	nop			@ (mov r8, r8)
    1130:	40025000 	.word	0x40025000

00001134 <HwiP_disable>:
  __ASM volatile ("MRS %0, primask" : "=r" (result) );
    1134:	f3ef 8010 	mrs	r0, PRIMASK
  __ASM volatile ("cpsid i" : : : "memory");
    1138:	b672      	cpsid	i
__STATIC_INLINE bool IntDisableMaster(void)
{
    uint32_t interruptsDisabled = __get_PRIMASK();
    // Disable CPU interrupts.
    __disable_irq();
    return (interruptsDisabled);
    113a:	1e41      	subs	r1, r0, #1
    113c:	4188      	sbcs	r0, r1
    return (IntDisableMaster());
    113e:	4770      	bx	lr

00001140 <PowerCC23X0_rtcISR>:
{
    1140:	4801      	ldr	r0, [pc, #4]	@ (1148 <PowerCC23X0_rtcISR+0x8>)
    HWREG(RTC_BASE + RTC_O_ICLR) = HWREG(RTC_BASE + RTC_O_MIS);
    1142:	6801      	ldr	r1, [r0, #0]
    1144:	6081      	str	r1, [r0, #8]
}
    1146:	4770      	bx	lr
    1148:	4000204c 	.word	0x4000204c

0000114c <Power_getConstraintMask>:
    return (uint_fast32_t)constraintMask;
    114c:	4801      	ldr	r0, [pc, #4]	@ (1154 <Power_getConstraintMask+0x8>)
    114e:	6800      	ldr	r0, [r0, #0]
    1150:	4770      	bx	lr
    1152:	46c0      	nop			@ (mov r8, r8)
    1154:	20000098 	.word	0x20000098

00001158 <_ZN12_GLOBAL__N_14JumpEj>:
        auto stackPointer = *reinterpret_cast<uint32_t*>(vectorTableAddress);
    1158:	6802      	ldr	r2, [r0, #0]
        auto resetHandler = *reinterpret_cast<uint32_t*>(vectorTableAddress + sizeof(uint32_t));
    115a:	6841      	ldr	r1, [r0, #4]
        JumpAsm(stackPointer, resetHandler);
    115c:	4610      	mov	r0, r2
    115e:	f000 f80d 	bl	117c <_ZN12_GLOBAL__N_17JumpAsmEjj>

00001162 <HwiP_clearInterrupt>:
{
    1162:	b580      	push	{r7, lr}
    IntClearPend((uint32_t)interruptNum);
    1164:	f7ff fefe 	bl	f64 <IntClearPend>
}
    1168:	bd80      	pop	{r7, pc}

0000116a <HwiP_enableInterrupt>:
{
    116a:	b580      	push	{r7, lr}
    IntEnable(interruptNum);
    116c:	f7ff ff42 	bl	ff4 <IntEnable>
}
    1170:	bd80      	pop	{r7, pc}

00001172 <nmiISR>:
    while (1) {}
    1172:	e7fe      	b.n	1172 <nmiISR>

00001174 <__aeabi_memcpy>:
    1174:	b580      	push	{r7, lr}
    1176:	f7ff fcd1 	bl	b1c <memcpy>
    117a:	bd80      	pop	{r7, pc}

0000117c <_ZN12_GLOBAL__N_17JumpAsmEjj>:
        asm volatile(
    117c:	f380 8808 	msr	MSP, r0
    1180:	4708      	bx	r1

00001182 <abort>:
    1182:	f000 f803 	bl	118c <HOSTexit>
    1186:	e7fe      	b.n	1186 <abort+0x4>

00001188 <ClockP_getSystemTickPeriod>:

/*
 *  ======== ClockP_getSystemTickPeriod ========
 */
uint32_t ClockP_getSystemTickPeriod(void)
{
    1188:	2001      	movs	r0, #1
    return (ClockP_TICK_PERIOD);
    118a:	4770      	bx	lr

0000118c <HOSTexit>:
    118c:	bf00      	nop
    118e:	4770      	bx	lr

00001190 <_system_pre_init>:
    1190:	2001      	movs	r0, #1
    1192:	4770      	bx	lr
